Component: ARM Compiler 5.06 update 5 (build 528) Tool: armlink [4d35e2]

==============================================================================

Section Cross References

    boot_vectors.o(RESET) refers to boot_vectors.o(STACK) for __initial_sp
    boot_vectors.o(RESET) refers to boot_vectors.o(.text) for Reset_Handler
    boot_vectors.o(RESET) refers to rwble.o(.text) for BLE_WAKEUP_LP_Handler
    boot_vectors.o(RESET) refers to pwm.o(.text) for SWTIM_Handler
    boot_vectors.o(RESET) refers to uart.o(.text) for UART_Handler
    boot_vectors.o(RESET) refers to gpio.o(.text) for GPIO0_Handler
    boot_vectors.o(.text) refers to system_armcm0.o(.text) for SystemInit
    boot_vectors.o(.text) refers to entry.o(.ARM.Collect$$$$00000000) for __main
    boot_vectors.o(.text) refers to nmi_handler.o(.text) for NMI_HandlerC
    boot_vectors.o(.text) refers to hardfault_handler.o(.text) for HardFault_HandlerC
    boot_vectors.o(.text) refers to arch_main.o(.text) for SVC_Handler_c
    arch_main.o(.text) refers to arch_system.o(.text) for set_sleep_delay
    arch_main.o(.text) refers to gpio.o(i.GPIO_GetPinStatus) for GPIO_GetPinStatus
    arch_main.o(.text) refers to uart.o(.text) for printf_string
    arch_main.o(.text) refers to gpio.o(i.GPIO_SetActive) for GPIO_SetActive
    arch_main.o(.text) refers to app_throughput_peripheral_proj.o(.text) for motor_reset_handleEx
    arch_main.o(.text) refers to periph_setup.o(.text) for delay_us
    arch_main.o(.text) refers to gpio.o(i.GPIO_SetInactive) for GPIO_SetInactive
    arch_main.o(.text) refers to gpio.o(i.GPIO_init) for GPIO_init
    arch_main.o(.text) refers to spi_flash.o(.text) for spi_read_flash_unique_id
    arch_main.o(.text) refers to gpio.o(i.GPIO_ConfigurePin) for GPIO_ConfigurePin
    arch_main.o(.text) refers to arch_main.o(.constdata) for .constdata
    arch_main.o(.text) refers to arch_main.o(.bss) for .bss
    arch_main.o(.text) refers to arch_main.o(.data) for .data
    arch_main.o(.text) refers to app_throughput_peripheral_proj.o(.bss) for ResetCnt
    arch_main.o(.text) refers to pwm.o(.bss) for iSecCount
    arch_main.o(.text) refers to gpio.o(.bss) for count_present
    arch_main.o(.text) refers to arch_main.o(retention_mem_area0) for retention_mem_area0
    arch_main.o(.text) refers to nvds.o(nvds_data_storage_area) for nvds_data_storage
    arch_main.o(.text) refers to nvds.o(.text) for nvds_read_bdaddr_from_otp
    arch_main.o(.text) refers to rf_580.o(.text) for iq_trim_from_otp
    arch_main.o(.text) refers to arch_sleep.o(.text) for app_disable_sleep
    arch_main.o(.text) refers to app.o(.text) for app_init
    arch_main.o(.text) refers to rwip.o(.text) for rwip_sleep
    arch_main.o(.text) refers to arch_main.o(BLE_exchange_memory) for BLE_exchange_memory
    arch_main.o(.text) refers to arch_system.o(retention_mem_area0) for lp_clk_sel
    arch_main.o(.text) refers to jump_table.o(jump_table_mem_area) for jump_table_base
    arch_main.o(.text) refers to ddiv.o(.text) for __aeabi_ddiv
    arch_main.o(.text) refers to dfixui.o(.text) for __aeabi_d2uiz
    arch_main.o(.text) refers to periph_setup.o(.bss) for alarm_temp
    arch_main.o(.text) refers to periph_setup.o(.data) for alarm_sta
    arch_main.o(.text) refers to prf_utils.o(.text) for prf_server_send_event
    arch_main.o(.text) refers to app_throughput_peripheral_proj.o(.bss) for uBatRemainPercentMA
    arch_main.o(.text) refers to app.o(.bss) for M10_Master_conready
    arch_main.o(.text) refers to streamdatad.o(.bss) for streamdatad_env
    arch_main.o(.constdata) refers to arch_main.o(.text) for cmp_abs_time
    arch_main.o(.constdata) refers to atts_task.obj(.text) for l2cc_pdu_recv_ind_handler
    arch_main.o(.constdata) refers to smpc.obj(.text) for smpc_send_pairing_req_ind
    arch_main.o(.constdata) refers to smpc_task.obj(.text) for smpc_pairing_cfm_handler
    arch_main.o(.constdata) refers to ch_map.obj(.text) for my_llc_con_update_req_ind
    arch_main.o(.constdata) refers to gapm_util.obj(.text) for patched_gapm_adv_op_sanity
    arch_main.o(.data) refers to arch_main.o(.bss) for txBuffer
    jump_table.o(jump_table_mem_area) refers to arch_main.o(.text) for main_func
    jump_table.o(jump_table_mem_area) refers to rf_580.o(.text) for rf_init_func
    jump_table.o(jump_table_mem_area) refers to prf_utils.o(.text) for prf_init_func
    jump_table.o(jump_table_mem_area) refers to arch_system.o(.text) for uart_flow_off_func
    jump_table.o(jump_table_mem_area) refers to rwble.o(.text) for lld_sleep_compensate_func_patched
    jump_table.o(jump_table_mem_area) refers to jump_table.o(heap_mem_area_not_ret) for rwip_heap_non_ret
    jump_table.o(jump_table_mem_area) refers to jump_table.o(heap_env_area) for rwip_heap_env_ret
    jump_table.o(jump_table_mem_area) refers to jump_table.o(heap_db_area) for rwip_heap_db_ret
    jump_table.o(jump_table_mem_area) refers to jump_table.o(heap_msg_area) for rwip_heap_msg_ret
    jump_table.o(jump_table_mem_area) refers to ke_task.obj(.text) for ke_task_init_func
    jump_table.o(jump_table_mem_area) refers to nvds.o(.text) for custom_nvds_get_func
    jump_table.o(jump_table_mem_area) refers to arch_main.o(.constdata) for LUT_CFG
    arch_sleep.o(.text) refers to arch_sleep.o(retention_mem_area0) for retention_mem_area0
    arch_sleep.o(.text) refers to rwble.o(retention_mem_area0) for rwble_last_event
    periph_setup.o(.text) refers to pwm.o(i.set_tmr_enable) for set_tmr_enable
    periph_setup.o(.text) refers to pwm.o(i.set_tmr_div) for set_tmr_div
    periph_setup.o(.text) refers to pwm.o(.text) for timer0_init
    periph_setup.o(.text) refers to pwm.o(i.timer2_set_pwm2_duty_cycle) for timer2_set_pwm2_duty_cycle
    periph_setup.o(.text) refers to pwm.o(i.timer2_set_sw_pause) for timer2_set_sw_pause
    periph_setup.o(.text) refers to pwm.o(i.timer0_start) for timer0_start
    periph_setup.o(.text) refers to gpio.o(i.GPIO_ConfigurePin) for GPIO_ConfigurePin
    periph_setup.o(.text) refers to gpio.o(.bss) for GPIO
    periph_setup.o(.text) refers to prf_utils.o(.text) for prf_server_send_event
    periph_setup.o(.text) refers to app.o(.text) for app_timer_set
    periph_setup.o(.text) refers to arch_main.o(.text) for patch_func
    periph_setup.o(.text) refers to adc.o(.text) for adc_calibrate
    periph_setup.o(.text) refers to uart.o(.text) for uart_init
    periph_setup.o(.text) refers to gpio.o(i.GPIO_EnableIRQ) for GPIO_EnableIRQ
    periph_setup.o(.text) refers to spi.o(.text) for spi_init
    periph_setup.o(.text) refers to spi_flash.o(.text) for spi_flash_auto_detect
    periph_setup.o(.text) refers to gpio.o(i.GPIO_SetActive) for GPIO_SetActive
    periph_setup.o(.text) refers to gpio.o(i.GPIO_SetInactive) for GPIO_SetInactive
    periph_setup.o(.text) refers to streamdatad.o(.bss) for streamdatad_env
    periph_setup.o(.text) refers to periph_setup.o(.bss) for .bss
    periph_setup.o(.text) refers to periph_setup.o(.data) for .data
    periph_setup.o(.text) refers to pwm.o(.bss) for timer
    periph_setup.o(.text) refers to uart.o(.bss) for USART_RX_STA
    arch_system.o(.text) refers to ffltui.o(.text) for __aeabi_ui2f
    arch_system.o(.text) refers to fdiv.o(.text) for __aeabi_fdiv
    arch_system.o(.text) refers to fscalb.o(.text) for __ARM_scalbnf
    arch_system.o(.text) refers to ffixui.o(.text) for __aeabi_f2uiz
    arch_system.o(.text) refers to f2d.o(.text) for __aeabi_f2d
    arch_system.o(.text) refers to d2f.o(.text) for __aeabi_d2f
    arch_system.o(.text) refers to arch_system.o(retention_mem_area0) for retention_mem_area0
    rf_580.o(.text) refers to arch_system.o(retention_mem_area0) for lp_clk_sel
    rf_580.o(.text) refers to jump_table.o(jump_table_mem_area) for jump_table_base
    gpio.o(.text) refers to gpio.o(i.GPIO_ResetIRQ) for GPIO_ResetIRQ
    gpio.o(.text) refers to gpio.o(.bss) for .bss
    gpio.o(.text) refers to pwm.o(.bss) for DropCnt
    uart.o(.text) refers to uart.o(.bss) for .bss
    pwm.o(.text) refers to pwm.o(i.timer2_enable) for timer2_enable
    pwm.o(.text) refers to pwm.o(i.timer2_set_hw_pause) for timer2_set_hw_pause
    pwm.o(.text) refers to pwm.o(i.timer2_set_sw_pause) for timer2_set_sw_pause
    pwm.o(.text) refers to pwm.o(.ARM.__AT_0x50003400) for .ARM.__AT_0x50003400
    pwm.o(.text) refers to pwm.o(.bss) for .bss
    pwm.o(.text) refers to arch_main.o(.bss) for BeSecTmp
    spi.o(.text) refers to gpio.o(i.GPIO_SetInactive) for GPIO_SetInactive
    spi.o(.text) refers to gpio.o(i.GPIO_SetActive) for GPIO_SetActive
    spi.o(.text) refers to spi.o(.bss) for .bss
    spi_flash.o(.text) refers to spi.o(.text) for spi_set_bitmode
    spi_flash.o(.text) refers to spi_flash.o(.bss) for .bss
    spi_flash.o(.text) refers to spi_flash.o(.constdata) for .constdata
    smpc_task.obj(.text) refers to smpc.obj(.text) for smpc_send_pairing_req_ind
    nvds.o(.text) refers to nvds.o(retention_mem_area0) for retention_mem_area0
    rwip.o(.text) refers to arch_sleep.o(.text) for app_ble_ext_wakeup_get
    rwip.o(.text) refers to arch_system.o(.text) for lld_sleep_us_2_lpcycles_sel_func
    rwip.o(.text) refers to ffltui.o(.text) for __aeabi_ui2f
    rwip.o(.text) refers to fmul.o(.text) for __aeabi_fmul
    rwip.o(.text) refers to ffixui.o(.text) for __aeabi_f2uiz
    rwip.o(.text) refers to jump_table.o(jump_table_mem_area) for jump_table_base
    rwip.o(.text) refers to arch_system.o(retention_mem_area0) for lp_clk_sel
    rwip.o(.text) refers to arch_main.o(retention_mem_area0) for sys_startup_flag
    rwble.o(.text) refers to arch_system.o(.text) for lld_sleep_lpcycles_2_us_sel_func
    rwble.o(.text) refers to periph_setup.o(.text) for periph_init
    rwble.o(.text) refers to jump_table.o(jump_table_mem_area) for jump_table_base
    rwble.o(.text) refers to arch_system.o(retention_mem_area0) for lp_clk_sel
    rwble.o(.text) refers to rwble.o(retention_mem_area0) for retention_mem_area0
    prf_utils.o(.text) refers to diss.o(.text) for diss_init
    prf_utils.o(.text) refers to streamdatad.o(.text) for streamdatad_init
    prf_utils.o(.text) refers to spotar.o(.text) for spotar_init
    prf_utils.o(.text) refers to uart.o(.text) for printf_string
    prf_utils.o(.text) refers to app.o(.text) for app_timer_set
    prf_utils.o(.text) refers to app.o(.bss) for M10_Master_conready
    streamdatad.o(.text) refers to streamdatad.o(.bss) for .bss
    streamdatad.o(.text) refers to streamdatad.o(.constdata) for .constdata
    streamdatad.o(.constdata) refers to streamdatad_task.o(.constdata) for streamdatad_state_handler
    streamdatad.o(.constdata) refers to streamdatad_task.o(.constdata) for streamdatad_default_handler
    streamdatad.o(.constdata) refers to streamdatad_task.o(.bss) for streamdatad_state
    streamdatad_task.o(.text) refers to gpio.o(i.GPIO_ConfigurePin) for GPIO_ConfigurePin
    streamdatad_task.o(.text) refers to spi_flash.o(.text) for spi_flash_block_erase
    streamdatad_task.o(.text) refers to app.o(.text) for app_timer_set
    streamdatad_task.o(.text) refers to uart.o(.text) for printf_string
    streamdatad_task.o(.text) refers to streamdatad.o(.bss) for streamdatad_env
    streamdatad_task.o(.text) refers to streamdatad_task.o(.constdata) for .constdata
    streamdatad_task.o(.text) refers to streamdatad_task.o(.bss) for .bss
    streamdatad_task.o(.text) refers to gpio.o(.bss) for GPIO
    streamdatad_task.o(.constdata) refers to streamdatad_task.o(.constdata) for streamdatad_svc
    streamdatad_task.o(.constdata) refers to streamdatad_task.o(.constdata) for streamdatad_enable_char
    streamdatad_task.o(.constdata) refers to streamdatad_task.o(.constdata) for streamdatad_enable_desc
    streamdatad_task.o(.constdata) refers to streamdatad_task.o(.constdata) for streamdatad_d0_char
    streamdatad_task.o(.constdata) refers to streamdatad_task.o(.constdata) for streamdatad_d_desc
    streamdatad_task.o(.constdata) refers to streamdatad_task.o(.text) for streamdatad_create_db_req_handler
    streamdatad_task.o(.constdata) refers to streamdatad_task.o(.text) for streamdatad_enable_req_handler
    streamdatad_task.o(.constdata) refers to streamdatad_task.o(.text) for streamdatad_disable_req_handler
    streamdatad_task.o(.constdata) refers to streamdatad_task.o(.constdata) for streamdatad_disabled
    streamdatad_task.o(.constdata) refers to streamdatad_task.o(.constdata) for streamdatad_idle
    streamdatad_task.o(.constdata) refers to streamdatad_task.o(.constdata) for streamdatad_active
    spotar_task.o(.text) refers to prf_utils.o(.text) for prf_server_send_event
    spotar_task.o(.text) refers to spotar.o(retention_mem_area0) for spotar_env
    spotar_task.o(.text) refers to spotar.o(.constdata) for spotar_service
    spotar_task.o(.text) refers to spotar.o(.constdata) for spotar_patch_mem_dev_val
    spotar_task.o(.text) refers to spotar.o(.data) for spotar_patch_mem_dev_char
    spotar_task.o(.text) refers to spotar.o(.constdata) for spotar_gpio_map_val
    spotar_task.o(.text) refers to spotar.o(.data) for spotar_gpio_map_char
    spotar_task.o(.text) refers to spotar.o(.constdata) for spotar_patch_mem_info_val
    spotar_task.o(.text) refers to spotar.o(.data) for spotar_patch_mem_info_char
    spotar_task.o(.text) refers to spotar.o(.constdata) for spotar_patch_len_val
    spotar_task.o(.text) refers to spotar.o(.data) for spotar_patch_len_char
    spotar_task.o(.text) refers to spotar.o(.constdata) for spotar_patch_data_val
    spotar_task.o(.text) refers to spotar.o(.data) for spotar_patch_data_char
    spotar_task.o(.text) refers to spotar.o(.constdata) for spotar_patch_status_val
    spotar_task.o(.text) refers to spotar.o(.data) for spotar_patch_status_char
    spotar_task.o(.text) refers to spotar.o(.text) for spotar_disable
    spotar_task.o(.constdata) refers to spotar_task.o(.text) for spotar_create_db_req_handler
    spotar_task.o(.constdata) refers to spotar_task.o(.text) for spotar_enable_req_handler
    spotar_task.o(.constdata) refers to spotar_task.o(.text) for gattc_write_cmd_ind_handler
    spotar_task.o(.constdata) refers to spotar_task.o(.text) for gapc_disconnect_ind_handler
    spotar_task.o(.constdata) refers to spotar_task.o(.constdata) for spotar_disabled
    spotar_task.o(.constdata) refers to spotar_task.o(.constdata) for spotar_idle
    spotar_task.o(.constdata) refers to spotar_task.o(.constdata) for spotar_active
    spotar_task.o(.constdata) refers to spotar_task.o(.constdata) for spotar_default_state
    spotar.o(.text) refers to spotar.o(retention_mem_area0) for retention_mem_area0
    spotar.o(.text) refers to spotar.o(.constdata) for .constdata
    spotar.o(.constdata) refers to spotar_task.o(.constdata) for spotar_state_handler
    spotar.o(.constdata) refers to spotar_task.o(.constdata) for spotar_default_handler
    spotar.o(.constdata) refers to spotar_task.o(retention_mem_area0) for spotar_state
    diss_task.o(.text) refers to diss.o(.text) for diss_compute_cfg_flag
    diss_task.o(.text) refers to prf_utils.o(.text) for prf_server_error_ind_send
    diss_task.o(.text) refers to diss.o(retention_mem_area0) for diss_env
    diss_task.o(.text) refers to diss.o(.constdata) for diss_att_db
    diss_task.o(.constdata) refers to diss_task.o(.text) for diss_create_db_req_handler
    diss_task.o(.constdata) refers to diss_task.o(.text) for diss_set_char_val_req_handler
    diss_task.o(.constdata) refers to diss_task.o(.text) for gapc_disconnect_ind_handler
    diss_task.o(.constdata) refers to diss_task.o(.constdata) for diss_disabled
    diss_task.o(.constdata) refers to diss_task.o(.constdata) for diss_idle
    diss_task.o(.constdata) refers to diss_task.o(.constdata) for diss_default_state
    diss.o(.text) refers to diss.o(retention_mem_area0) for retention_mem_area0
    diss.o(.text) refers to diss.o(.constdata) for .constdata
    diss.o(.constdata) refers to diss.o(.constdata) for diss_dis_svc
    diss.o(.constdata) refers to diss.o(.constdata) for diss_manufacturer_name_char
    diss.o(.constdata) refers to diss.o(.constdata) for diss_model_nb_str_char
    diss.o(.constdata) refers to diss.o(.constdata) for diss_serial_nb_str_char
    diss.o(.constdata) refers to diss.o(.constdata) for diss_hard_rev_str_char
    diss.o(.constdata) refers to diss.o(.constdata) for diss_firm_rev_str_char
    diss.o(.constdata) refers to diss.o(.constdata) for diss_sw_rev_str_char
    diss.o(.constdata) refers to diss.o(.constdata) for diss_system_id_char
    diss.o(.constdata) refers to diss.o(.constdata) for diss_ieee_char
    diss.o(.constdata) refers to diss.o(.constdata) for diss_pnp_id_char
    diss.o(.constdata) refers to diss_task.o(.constdata) for diss_state_handler
    diss.o(.constdata) refers to diss_task.o(.constdata) for diss_default_handler
    diss.o(.constdata) refers to diss_task.o(retention_mem_area0) for diss_state
    app.o(.text) refers to app_throughput_peripheral_proj.o(.text) for app_init_func
    app.o(.text) refers to app_sec.o(.text) for app_sec_init
    app.o(.text) refers to uart.o(.text) for printf_string
    app.o(.text) refers to app.o(retention_mem_area0) for retention_mem_area0
    app.o(.text) refers to app.o(.constdata) for .constdata
    app.o(.text) refers to app.o(.bss) for .bss
    app.o(.constdata) refers to app_task.o(.constdata) for app_default_handler
    app.o(.constdata) refers to app_task.o(retention_mem_area0) for app_state
    app_sec.o(.text) refers to app_throughput_peripheral_proj.o(.text) for app_sec_init_func
    app_sec.o(.text) refers to app_sec.o(retention_mem_area0) for retention_mem_area0
    app_sec.o(.text) refers to app.o(retention_mem_area0) for app_env
    app_sec_task.o(.text) refers to app_throughput_peripheral_proj.o(.text) for app_send_pairing_rsp_func
    app_sec_task.o(.text) refers to app.o(.text) for app_disconnect
    app_sec_task.o(.text) refers to app_sec.o(retention_mem_area0) for app_sec_env
    app_sec_task.o(.text) refers to app.o(retention_mem_area0) for app_env
    app_task.o(.text) refers to app_throughput_peripheral_proj.o(.text) for app_configuration_func
    app_task.o(.text) refers to app.o(.text) for app_db_init
    app_task.o(.text) refers to app.o(retention_mem_area0) for app_env
    app_task.o(.constdata) refers to app_task.o(.text) for gapm_device_ready_ind_handler
    app_task.o(.constdata) refers to app_throughput_peripheral_proj.o(.text) for uart_handle
    app_task.o(.constdata) refers to app_sec_task.o(.text) for gapc_bond_req_ind_handler
    app_task.o(.constdata) refers to app_dis_task.o(.text) for diss_create_db_cfm_handler
    app_task.o(.constdata) refers to app_spotar_task.o(.text) for spotar_patch_mem_dev_ind_handler
    app_task.o(.constdata) refers to app_streamdatad_task.o(.text) for stream_create_db_cfm_handler
    app_task.o(.constdata) refers to app_task.o(.constdata) for app_default_state
    app_throughput_peripheral_proj.o(.text) refers to adc.o(.text) for adc_enable_channel
    app_throughput_peripheral_proj.o(.text) refers to gpio.o(i.GPIO_SetInactive) for GPIO_SetInactive
    app_throughput_peripheral_proj.o(.text) refers to gpio.o(i.GPIO_SetActive) for GPIO_SetActive
    app_throughput_peripheral_proj.o(.text) refers to dadd.o(.text) for __aeabi_dsub
    app_throughput_peripheral_proj.o(.text) refers to ddiv.o(.text) for __aeabi_ddiv
    app_throughput_peripheral_proj.o(.text) refers to dfixui.o(.text) for __aeabi_d2uiz
    app_throughput_peripheral_proj.o(.text) refers to periph_setup.o(.text) for fliter
    app_throughput_peripheral_proj.o(.text) refers to app.o(.text) for app_timer_set
    app_throughput_peripheral_proj.o(.text) refers to app_dis.o(.text) for app_dis_init
    app_throughput_peripheral_proj.o(.text) refers to app_spotar.o(.text) for app_spotar_init
    app_throughput_peripheral_proj.o(.text) refers to app_streamdatad.o(.text) for app_streamdatad_enable
    app_throughput_peripheral_proj.o(.text) refers to uart.o(.text) for printf_string
    app_throughput_peripheral_proj.o(.text) refers to pwm.o(.bss) for setTime
    app_throughput_peripheral_proj.o(.text) refers to app_throughput_peripheral_proj.o(.bss) for .bss
    app_throughput_peripheral_proj.o(.text) refers to arch_main.o(.data) for MotorOn
    app_throughput_peripheral_proj.o(.text) refers to app_throughput_peripheral_proj.o(.data) for .data
    app_throughput_peripheral_proj.o(.text) refers to arch_main.o(.bss) for ZigbFlg
    app_throughput_peripheral_proj.o(.text) refers to pwm.o(.bss) for iseccnt3
    app_throughput_peripheral_proj.o(.text) refers to app.o(retention_mem_area0) for app_env
    app_throughput_peripheral_proj.o(.text) refers to app_sec.o(retention_mem_area0) for app_sec_env
    app_throughput_peripheral_proj.o(.text) refers to streamdatad_task.o(.bss) for BLE_MAC_Edit
    app_throughput_peripheral_proj.o(.text) refers to app.o(.bss) for M10_Master_conready
    app_streamdatad.o(.text) refers to app.o(retention_mem_area0) for app_env
    app_spotar_task.o(.text) refers to app_spotar.o(.text) for app_spotar_pd_hdlr
    app_spotar_task.o(.text) refers to app_spotar.o(retention_mem_area0) for spota_state
    app_spotar_task.o(.text) refers to app_spotar.o(spotar_patch_area) for spota_new_pd
    app_spotar.o(.text) refers to spi.o(.text) for spi_release
    app_spotar.o(.text) refers to spi_flash.o(.text) for spi_flash_write_data
    app_spotar.o(.text) refers to gpio.o(i.GPIO_ConfigurePin) for GPIO_ConfigurePin
    app_spotar.o(.text) refers to app_spotar.o(retention_mem_area0) for retention_mem_area0
    app_spotar.o(.text) refers to app_spotar.o(spotar_patch_area) for spotar_patch_area
    app_spotar.o(.text) refers to app.o(retention_mem_area0) for app_env
    app_spotar.o(.text) refers to spotar.o(retention_mem_area0) for spotar_env
    app_spotar.o(.text) refers to gpio.o(.bss) for GPIO
    entry.o(.ARM.Collect$$$$00000000) refers (Special) to entry10a.o(.ARM.Collect$$$$0000000D) for __rt_final_cpp
    entry.o(.ARM.Collect$$$$00000000) refers (Special) to entry11a.o(.ARM.Collect$$$$0000000F) for __rt_final_exit
    entry.o(.ARM.Collect$$$$00000000) refers (Special) to entry7b.o(.ARM.Collect$$$$00000008) for _main_clock
    entry.o(.ARM.Collect$$$$00000000) refers (Special) to entry8b.o(.ARM.Collect$$$$0000000A) for _main_cpp_init
    entry.o(.ARM.Collect$$$$00000000) refers (Special) to entry9a.o(.ARM.Collect$$$$0000000B) for _main_init
    entry.o(.ARM.Collect$$$$00000000) refers (Special) to entry5.o(.ARM.Collect$$$$00000004) for _main_scatterload
    entry.o(.ARM.Collect$$$$00000000) refers (Special) to entry2.o(.ARM.Collect$$$$00000001) for _main_stk
    fdiv.o(.text) refers to fepilogue.o(.text) for _float_round
    dadd.o(.text) refers to llsshr.o(.text) for __aeabi_lasr
    ffltui.o(.text) refers to fepilogue.o(.text) for _float_epilogue
    d2f.o(.text) refers to fepilogue.o(.text) for _float_round
    entry2.o(.ARM.Collect$$$$00000001) refers to entry2.o(.ARM.Collect$$$$00002712) for __lit__00000000
    entry2.o(.ARM.Collect$$$$00002712) refers to boot_vectors.o(STACK) for __initial_sp
    entry2.o(__vectab_stack_and_reset_area) refers to boot_vectors.o(STACK) for __initial_sp
    entry2.o(__vectab_stack_and_reset_area) refers to entry.o(.ARM.Collect$$$$00000000) for __main
    entry5.o(.ARM.Collect$$$$00000004) refers to init.o(.text) for __scatterload
    init.o(.text) refers to entry5.o(.ARM.Collect$$$$00000004) for __main_after_scatterload
    gpio.o(i.GPIO_init) refers to periph_setup.o(.text) for GPIO_reservations
    gpio.o(i.GPIO_init) refers to gpio.o(.bss) for .bss
    gpio.o(i.GPIO_init) refers to gpio.o(.constdata) for .constdata
    gpio.o(i.GPIO_SetPinFunction) refers to gpio.o(.bss) for .bss
    gpio.o(i.GPIO_SetInactive) refers to gpio.o(.bss) for .bss
    gpio.o(i.GPIO_SetActive) refers to gpio.o(.bss) for .bss
    gpio.o(i.GPIO_ConfigurePin) refers to gpio.o(i.GPIO_SetActive) for GPIO_SetActive
    gpio.o(i.GPIO_ConfigurePin) refers to gpio.o(i.GPIO_SetInactive) for GPIO_SetInactive
    gpio.o(i.GPIO_ConfigurePin) refers to gpio.o(i.GPIO_SetPinFunction) for GPIO_SetPinFunction
    gpio.o(i.GPIO_ConfigurePin) refers to gpio.o(.bss) for .bss
    gpio.o(i.GPIO_GetPinStatus) refers to gpio.o(.bss) for .bss
    gpio.o(i.GPIO_EnableIRQ) refers to gpio.o(.bss) for .bss
    gpio.o(i.GPIO_EnableIRQ) refers to gpio.o(.conststring) for .conststring
    gpio.o(i.GPIO_RegisterCallback) refers to gpio.o(.bss) for .bss
    pwm.o(i.set_tmr_enable) refers to pwm.o(.ARM.__AT_0x50000004) for .ARM.__AT_0x50000004
    pwm.o(i.set_tmr_div) refers to pwm.o(.ARM.__AT_0x50000004) for .ARM.__AT_0x50000004
    pwm.o(i.timer0_start) refers to pwm.o(.ARM.__AT_0x50003400) for .ARM.__AT_0x50003400
    pwm.o(i.timer0_stop) refers to pwm.o(.ARM.__AT_0x50003400) for .ARM.__AT_0x50003400
    pwm.o(i.timer0_release) refers to pwm.o(i.timer0_stop) for timer0_stop
    pwm.o(i.timer0_register_callback) refers to pwm.o(.bss) for .bss
    pwm.o(i.timer2_enable) refers to pwm.o(.ARM.__AT_0x50003410) for .ARM.__AT_0x50003410
    pwm.o(i.timer2_set_hw_pause) refers to pwm.o(.ARM.__AT_0x50003410) for .ARM.__AT_0x50003410
    pwm.o(i.timer2_set_sw_pause) refers to pwm.o(.ARM.__AT_0x50003410) for .ARM.__AT_0x50003410
    pwm.o(i.timer2_stop) refers to pwm.o(i.timer2_enable) for timer2_enable


==============================================================================

Removing Unused input sections from the image.

    Removing boot_vectors.o(HEAP), (256 bytes).
    Removing arch_main.o(.bss), (1 bytes).
    Removing arch_main.o(.bss), (1 bytes).
    Removing arch_main.o(.data), (1 bytes).
    Removing periph_setup.o(.bss), (4 bytes).
    Removing periph_setup.o(.bss), (2 bytes).
    Removing uart.o(.bss), (1 bytes).
    Removing streamdatad_task.o(.bss), (1 bytes).
    Removing spotar.o(.constdata), (29 bytes).
    Removing spotar.o(.constdata), (39 bytes).
    Removing spotar.o(.constdata), (48 bytes).
    Removing spotar.o(.constdata), (21 bytes).
    Removing spotar.o(.constdata), (23 bytes).
    Removing spotar.o(.constdata), (26 bytes).
    Removing app_throughput_peripheral_proj.o(.bss), (4 bytes).
    Removing app_throughput_peripheral_proj.o(.bss), (1 bytes).
    Removing app_throughput_peripheral_proj.o(.bss), (640 bytes).
    Removing app_throughput_peripheral_proj.o(.bss), (2 bytes).
    Removing app_throughput_peripheral_proj.o(retention_mem_area0), (1 bytes).
    Removing gpio.o(i.GPIO_RegisterCallback), (16 bytes).
    Removing pwm.o(i.timer0_stop), (16 bytes).
    Removing pwm.o(i.timer0_release), (8 bytes).
    Removing pwm.o(i.timer0_set_pwm_on_counter), (12 bytes).
    Removing pwm.o(i.timer0_set_pwm_high_counter), (12 bytes).
    Removing pwm.o(i.timer0_set_pwm_low_counter), (12 bytes).
    Removing pwm.o(i.timer0_register_callback), (12 bytes).
    Removing pwm.o(i.timer2_set_pwm_frequency), (12 bytes).
    Removing pwm.o(i.timer2_stop), (10 bytes).
    Removing pwm.o(i.timer2_set_pwm3_duty_cycle), (12 bytes).
    Removing pwm.o(i.timer2_set_pwm4_duty_cycle), (12 bytes).
    Removing atts_task.obj(i.__ARM_common_switch8), (26 bytes).

31 unused section(s) (total 1261 bytes) removed from the image.

==============================================================================

Adding Veneers to the image

    Adding TT veneer (12 bytes, Long) for call to 'set_system_clocks' from arch_main.o(.text).
    Adding TT veneer (12 bytes, Long) for call to 'srand' from arch_main.o(.text).
    Adding TT veneer (12 bytes, Long) for call to 'nvds_init' from arch_main.o(.text).
    Adding TT veneer (12 bytes, Long) for call to 'rwip_init' from arch_main.o(.text).
    Adding TT veneer (12 bytes, Long) for call to 'enable_rf_diag_irq' from arch_main.o(.text).
    Adding TT veneer (12 bytes, Long) for call to 'app_get_sleep_mode' from arch_main.o(.text).
    Adding TT veneer (12 bytes, Long) for call to 'rwip_prevent_sleep_get' from arch_main.o(.text).
    Adding TT veneer (12 bytes, Long) for call to 'ke_event_get' from arch_main.o(.text).
    Adding TT veneer (12 bytes, Long) for call to 'rwip_schedule' from arch_main.o(.text).
    Adding TT veneer (12 bytes, Long) for call to 'lld_sleep_check' from arch_main.o(.text).
    Adding TT veneer (12 bytes, Long) for call to 'func_check_mem' from arch_main.o(.text).
    Adding TT veneer (12 bytes, Long) for call to 'test_rxdone' from arch_main.o(.text).
    Adding TT veneer (12 bytes, Long) for call to 'ke_mem_is_empty' from arch_main.o(.text).
    Adding TT veneer (12 bytes, Long) for call to '__aeabi_uidivmod' from arch_main.o(.text).
    Adding TT veneer (12 bytes, Long) for call to '__aeabi_idivmod' from arch_main.o(.text).
    Adding TT veneer (12 bytes, Long) for call to '__aeabi_ui2d' from arch_main.o(.text).
    Adding TT veneer (12 bytes, Long) for call to '__aeabi_dmul' from arch_main.o(.text).
    Adding TT veneer (12 bytes, Long) for call to 'attmdb_att_set_value' from arch_main.o(.text).
    Adding TT veneer (12 bytes, Long) for call to 'rwip_wakeup_delay_set' from arch_system.o(.text).
    Adding TT veneer (12 bytes, Long) for call to '$Super$$get_rc16m_count_func' from arch_system.o(.text).
    Adding TT veneer (12 bytes, Long) for call to 'get_rc16m_count' from arch_system.o(.text).
    Adding TT veneer (12 bytes, Long) for call to 'pll_vcocal_LUT_InitUpdate' from arch_system.o(.text).
    Adding TT veneer (12 bytes, Long) for call to 'rf_calibration' from arch_system.o(.text).
    Adding TT veneer (12 bytes, Long) for call to 'lld_sleep_us_2_lpcycles_func' from arch_system.o(.text).
    Adding TT veneer (12 bytes, Long) for call to 'lld_sleep_lpcycles_2_us_func' from arch_system.o(.text).
    Adding TT veneer (12 bytes, Long) for call to 'uart_flow_on' from arch_system.o(.text).
    Adding TT veneer (12 bytes, Long) for call to '__aeabi_memcpy' from rf_580.o(.text).
    Adding TT veneer (12 bytes, Long) for call to 'co_list_pop_front' from ke_task.obj(.text).
    Adding TT veneer (12 bytes, Long) for call to 'ke_task_handler_get' from ke_task.obj(.text).
    Adding TT veneer (12 bytes, Long) for call to 'ke_msg_free' from ke_task.obj(.text).
    Adding TT veneer (12 bytes, Long) for call to 'co_list_push_back' from ke_task.obj(.text).
    Adding TT veneer (12 bytes, Long) for call to 'ke_event_clear' from ke_task.obj(.text).
    Adding TT veneer (12 bytes, Long) for call to '__aeabi_memclr4' from ke_task.obj(.text).
    Adding TT veneer (12 bytes, Long) for call to 'ke_event_callback_set' from ke_task.obj(.text).
    Adding TT veneer (12 bytes, Long) for call to 'lld_con_update_ind' from ch_map.obj(.text).
    Adding TT veneer (12 bytes, Long) for call to 'ke_state_set' from ch_map.obj(.text).
    Adding TT veneer (12 bytes, Long) for call to 'llc_util_dicon_procedure' from ch_map.obj(.text).
    Adding TT veneer (12 bytes, Long) for call to 'lld_ch_map_ind' from ch_map.obj(.text).
    Adding TT veneer (12 bytes, Long) for call to 'ke_state_get' from atts_task.obj(.text).
    Adding TT veneer (12 bytes, Long) for call to '__ARM_common_switch8' from atts_task.obj(.text).
    Adding TT veneer (12 bytes, Long) for call to 'ke_timer_clear' from atts_task.obj(.text).
    Adding TT veneer (12 bytes, Long) for call to 'atts_send_cmd_cmp' from atts_task.obj(.text).
    Adding TT veneer (12 bytes, Long) for call to 'atts_mtu_exc_resp' from atts_task.obj(.text).
    Adding TT veneer (12 bytes, Long) for call to 'atts_find_info_resp' from atts_task.obj(.text).
    Adding TT veneer (12 bytes, Long) for call to 'atts_find_by_type_resp' from atts_task.obj(.text).
    Adding TT veneer (12 bytes, Long) for call to 'atts_read_by_type_resp' from atts_task.obj(.text).
    Adding TT veneer (12 bytes, Long) for call to 'atts_read_by_grp_type_resp' from atts_task.obj(.text).
    Adding TT veneer (12 bytes, Long) for call to 'atts_read_resp' from atts_task.obj(.text).
    Adding TT veneer (12 bytes, Long) for call to 'atts_read_blob_resp' from atts_task.obj(.text).
    Adding TT veneer (12 bytes, Long) for call to 'atts_read_mult_resp' from atts_task.obj(.text).
    Adding TT veneer (12 bytes, Long) for call to 'atts_write_no_resp' from atts_task.obj(.text).
    Adding TT veneer (12 bytes, Long) for call to 'atts_write_resp' from atts_task.obj(.text).
    Adding TT veneer (12 bytes, Long) for call to 'atts_signed_write_resp' from atts_task.obj(.text).
    Adding TT veneer (12 bytes, Long) for call to 'atts_prepare_write_resp' from atts_task.obj(.text).
    Adding TT veneer (12 bytes, Long) for call to 'atts_execute_write_resp' from atts_task.obj(.text).
    Adding TT veneer (12 bytes, Long) for call to 'ke_msg_alloc' from smpc.obj(.text).
    Adding TT veneer (12 bytes, Long) for call to 'gapc_get_enc_keysize' from smpc.obj(.text).
    Adding TT veneer (12 bytes, Long) for call to 'gapc_get_role' from smpc.obj(.text).
    Adding TT veneer (12 bytes, Long) for call to 'ke_msg_send' from smpc.obj(.text).
    Adding TT veneer (12 bytes, Long) for call to 'smpc_generate_rand' from smpc_task.obj(.text).
    Adding TT veneer (12 bytes, Long) for call to 'smpc_tkdp_send_continue' from smpc_task.obj(.text).
    Adding TT veneer (12 bytes, Long) for call to 'smpc_pdu_send' from smpc_task.obj(.text).
    Adding TT veneer (12 bytes, Long) for call to 'smpc_tkdp_rcp_start' from smpc_task.obj(.text).
    Adding TT veneer (12 bytes, Long) for call to 'smpc_pairing_end' from smpc_task.obj(.text).
    Adding TT veneer (12 bytes, Long) for call to 'smpc_check_max_key_size' from smpc_task.obj(.text).
    Adding TT veneer (12 bytes, Long) for call to 'smpc_check_key_distrib' from smpc_task.obj(.text).
    Adding TT veneer (12 bytes, Long) for call to 'smpc_get_key_sec_prop' from smpc_task.obj(.text).
    Adding TT veneer (12 bytes, Long) for call to 'smpc_is_sec_mode_reached' from smpc_task.obj(.text).
    Adding TT veneer (12 bytes, Long) for call to 'gapm_get_privacy_flag' from gapm_util.obj(.text).
    Adding TT veneer (12 bytes, Long) for call to 'gapm_set_recon_addr' from gapm_util.obj(.text).
    Adding TT veneer (12 bytes, Long) for call to 'memcmp' from nvds.o(.text).
    Adding TT veneer (12 bytes, Long) for call to 'ke_sleep_check' from rwip.o(.text).
    Adding TT veneer (12 bytes, Long) for call to 'ke_timer_sleep_check' from rwip.o(.text).
    Adding TT veneer (12 bytes, Long) for call to 'gtl_enter_sleep' from rwip.o(.text).
    Adding TT veneer (12 bytes, Long) for call to 'lld_sleep_enter' from rwip.o(.text).
    Adding TT veneer (12 bytes, Long) for call to 'ble_regs_push' from rwip.o(.text).
    Adding TT veneer (12 bytes, Long) for call to '$Super$$BLE_CSCNT_Handler' from rwble.o(.text).
    Adding TT veneer (12 bytes, Long) for call to 'lld_evt_start_isr' from rwble.o(.text).
    Adding TT veneer (12 bytes, Long) for call to 'ble_regs_pop' from rwble.o(.text).
    Adding TT veneer (12 bytes, Long) for call to 'gtl_eif_init' from rwble.o(.text).
    Adding TT veneer (12 bytes, Long) for call to 'rwip_wakeup' from rwble.o(.text).
    Adding TT veneer (12 bytes, Long) for call to 'rf_workaround_init' from rwble.o(.text).
    Adding TT veneer (12 bytes, Long) for call to 'rf_reinit' from rwble.o(.text).
    Adding TT veneer (12 bytes, Long) for call to 'lld_evt_rx_isr' from rwble.o(.text).
    Adding TT veneer (12 bytes, Long) for call to 'lld_evt_end_isr' from rwble.o(.text).
    Adding TT veneer (12 bytes, Long) for call to 'set_rf_cal_cap' from rwble.o(.text).
    Adding TT veneer (12 bytes, Long) for call to 'set_gauss_modgain' from rwble.o(.text).
    Adding TT veneer (12 bytes, Long) for call to 'gapc_get_conhdl' from prf_utils.o(.text).
    Adding TT veneer (12 bytes, Long) for call to 'gapc_send_disconect_ind' from prf_utils.o(.text).
    Adding TT veneer (12 bytes, Long) for call to '__aeabi_memclr' from streamdatad.o(.text).
    Adding TT veneer (12 bytes, Long) for call to 'ke_task_create' from streamdatad.o(.text).
    Adding TT veneer (12 bytes, Long) for call to 'attm_svc_create_db' from streamdatad_task.o(.text).
    Adding TT veneer (12 bytes, Long) for call to 'attmdb_svc_set_permission' from streamdatad_task.o(.text).
    Adding TT veneer (12 bytes, Long) for call to 'gapc_get_conidx' from streamdatad_task.o(.text).
    Adding TT veneer (12 bytes, Long) for call to 'attmdb_att_update_value' from streamdatad_task.o(.text).
    Adding TT veneer (12 bytes, Long) for call to 'atts_write_rsp_send' from streamdatad_task.o(.text).
    Adding TT veneer (12 bytes, Long) for call to 'attmdb_add_service' from spotar_task.o(.text).
    Adding TT veneer (12 bytes, Long) for call to 'attmdb_add_attribute' from spotar_task.o(.text).
    Adding TT veneer (12 bytes, Long) for call to 'attmdb_att_get_value' from spotar_task.o(.text).
    Adding TT veneer (12 bytes, Long) for call to 'nvds_get' from app.o(.text).
    Adding TT veneer (12 bytes, Long) for call to 'ke_timer_set' from app.o(.text).
    Adding TT veneer (12 bytes, Long) for call to 'rand' from app_sec.o(.text).
    Adding TT veneer (12 bytes, Long) for call to '__aeabi_cdcmple' from app_throughput_peripheral_proj.o(.text).
    Adding TT veneer (12 bytes, Long) for call to '__aeabi_memcpy4' from app_throughput_peripheral_proj.o(.text).
    Adding TT veneer (12 bytes, Long) for call to 'get_patching_spota_length' from app_spotar_task.o(.text).
    Adding TT veneer (12 bytes, Long) for call to 'platform_reset' from app_spotar.o(.text).
    Adding TT veneer (12 bytes, Long) for call to '__aeabi_llsl' from app_spotar.o(.text).
    Adding TT veneer (12 bytes, Long) for call to '__aeabi_memset' from app_spotar.o(.text).
    Adding TT veneer (12 bytes, Long) for call to 'exec_patching_spota' from app_spotar.o(.text).
    Adding TT veneer (12 bytes, Long) for call to '_double_epilogue' from dadd.o(.text).
    Adding TT veneer (12 bytes, Long) for call to '_double_round' from dadd.o(.text).
    Adding TT veneer (12 bytes, Long) for call to '__aeabi_llsr' from dfixui.o(.text).

112 Veneer(s) (total 1344 bytes) added to the image.

==============================================================================

Image Symbol Table

    Local Symbols

    Symbol Name                              Value     Ov Type        Size  Object(Section)

    ../clib/microlib/init/entry.s            0x00000000   Number         0  entry11a.o ABSOLUTE
    ../clib/microlib/init/entry.s            0x00000000   Number         0  entry7b.o ABSOLUTE
    ../clib/microlib/init/entry.s            0x00000000   Number         0  entry8b.o ABSOLUTE
    ../clib/microlib/init/entry.s            0x00000000   Number         0  entry11b.o ABSOLUTE
    ../clib/microlib/init/entry.s            0x00000000   Number         0  entry.o ABSOLUTE
    ../clib/microlib/init/entry.s            0x00000000   Number         0  entry10b.o ABSOLUTE
    ../clib/microlib/init/entry.s            0x00000000   Number         0  entry10a.o ABSOLUTE
    ../clib/microlib/init/entry.s            0x00000000   Number         0  entry2.o ABSOLUTE
    ../clib/microlib/init/entry.s            0x00000000   Number         0  entry9b.o ABSOLUTE
    ../clib/microlib/init/entry.s            0x00000000   Number         0  entry8a.o ABSOLUTE
    ../clib/microlib/init/entry.s            0x00000000   Number         0  entry5.o ABSOLUTE
    ../clib/microlib/init/entry.s            0x00000000   Number         0  entry9a.o ABSOLUTE
    ../clib/microlib/init/entry.s            0x00000000   Number         0  entry7a.o ABSOLUTE
    ../clib/microlib/longlong.c              0x00000000   Number         0  llsshr.o ABSOLUTE
    ../fplib/microlib/d2f.c                  0x00000000   Number         0  d2f.o ABSOLUTE
    ../fplib/microlib/f2d.c                  0x00000000   Number         0  f2d.o ABSOLUTE
    ../fplib/microlib/fpadd.c                0x00000000   Number         0  dadd.o ABSOLUTE
    ../fplib/microlib/fpdiv.c                0x00000000   Number         0  ddiv.o ABSOLUTE
    ../fplib/microlib/fpdiv.c                0x00000000   Number         0  fdiv.o ABSOLUTE
    ../fplib/microlib/fpepilogue.c           0x00000000   Number         0  fepilogue.o ABSOLUTE
    ../fplib/microlib/fpfix.c                0x00000000   Number         0  ffixui.o ABSOLUTE
    ../fplib/microlib/fpfix.c                0x00000000   Number         0  dfixui.o ABSOLUTE
    ../fplib/microlib/fpflt.c                0x00000000   Number         0  ffltui.o ABSOLUTE
    ../fplib/microlib/fpmul.c                0x00000000   Number         0  fmul.o ABSOLUTE
    ../fplib/microlib/fpscalb.c              0x00000000   Number         0  fscalb.o ABSOLUTE
    ..\..\..\..\..\..\..\..\clean\kbd_ref\dk_apps\patch_code\src\ch_map.c 0x00000000   Number         0  ch_map.obj ABSOLUTE
    ..\..\..\..\..\..\..\..\clean\kbd_ref\dk_apps\patch_code\src\gapm_util.c 0x00000000   Number         0  gapm_util.obj ABSOLUTE
    ..\..\..\patch_code\src\atts_task.c      0x00000000   Number         0  atts_task.obj ABSOLUTE
    ..\..\..\patch_code\src\ke_task.c        0x00000000   Number         0  ke_task.obj ABSOLUTE
    ..\..\..\patch_code\src\smpc.c           0x00000000   Number         0  smpc.obj ABSOLUTE
    ..\..\..\patch_code\src\smpc_task.c      0x00000000   Number         0  smpc_task.obj ABSOLUTE
    ..\..\..\src\ip\ble\hl\src\host\gap\gapm\gapm.c 0x00000000   Number         0  gapm.o ABSOLUTE
    ..\..\..\src\ip\ble\hl\src\profiles\dis\diss\diss.c 0x00000000   Number         0  diss.o ABSOLUTE
    ..\..\..\src\ip\ble\hl\src\profiles\dis\diss\diss_task.c 0x00000000   Number         0  diss_task.o ABSOLUTE
    ..\..\..\src\ip\ble\hl\src\profiles\prf_utils.c 0x00000000   Number         0  prf_utils.o ABSOLUTE
    ..\..\..\src\ip\ble\hl\src\profiles\spota\spotar\spotar.c 0x00000000   Number         0  spotar.o ABSOLUTE
    ..\..\..\src\ip\ble\hl\src\profiles\spota\spotar\spotar_task.c 0x00000000   Number         0  spotar_task.o ABSOLUTE
    ..\..\..\src\ip\ble\hl\src\profiles\streamdata\streamdatad\streamdatad.c 0x00000000   Number         0  streamdatad.o ABSOLUTE
    ..\..\..\src\ip\ble\hl\src\profiles\streamdata\streamdatad\streamdatad_task.c 0x00000000   Number         0  streamdatad_task.o ABSOLUTE
    ..\..\..\src\ip\ble\ll\src\rwble\rwble.c 0x00000000   Number         0  rwble.o ABSOLUTE
    ..\..\..\src\modules\app\src\app.c       0x00000000   Number         0  app.o ABSOLUTE
    ..\..\..\src\modules\app\src\app_profiles\diss\app_dis.c 0x00000000   Number         0  app_dis.o ABSOLUTE
    ..\..\..\src\modules\app\src\app_profiles\diss\app_dis_task.c 0x00000000   Number         0  app_dis_task.o ABSOLUTE
    ..\..\..\src\modules\app\src\app_profiles\spotar\app_spotar.c 0x00000000   Number         0  app_spotar.o ABSOLUTE
    ..\..\..\src\modules\app\src\app_profiles\spotar\app_spotar_task.c 0x00000000   Number         0  app_spotar_task.o ABSOLUTE
    ..\..\..\src\modules\app\src\app_profiles\streamdatad\app_streamdatad.c 0x00000000   Number         0  app_streamdatad.o ABSOLUTE
    ..\..\..\src\modules\app\src\app_profiles\streamdatad\app_streamdatad_task.c 0x00000000   Number         0  app_streamdatad_task.o ABSOLUTE
    ..\..\..\src\modules\app\src\app_project\throughput_eval_peripheral_fh\app_throughput_peripheral_proj.c 0x00000000   Number         0  app_throughput_peripheral_proj.o ABSOLUTE
    ..\..\..\src\modules\app\src\app_project\throughput_eval_peripheral_fh\system\periph_setup.c 0x00000000   Number         0  periph_setup.o ABSOLUTE
    ..\..\..\src\modules\app\src\app_sec.c   0x00000000   Number         0  app_sec.o ABSOLUTE
    ..\..\..\src\modules\app\src\app_sec_task.c 0x00000000   Number         0  app_sec_task.o ABSOLUTE
    ..\..\..\src\modules\app\src\app_task.c  0x00000000   Number         0  app_task.o ABSOLUTE
    ..\..\..\src\modules\nvds\src\nvds.c     0x00000000   Number         0  nvds.o ABSOLUTE
    ..\..\..\src\modules\rf\src\rf_580.c     0x00000000   Number         0  rf_580.o ABSOLUTE
    ..\..\..\src\modules\rwip\src\rwip.c     0x00000000   Number         0  rwip.o ABSOLUTE
    ..\..\..\src\plf\refip\src\arch\boot\rvds\boot_vectors.s 0x00000000   Number         0  boot_vectors.o ABSOLUTE
    ..\..\..\src\plf\refip\src\arch\boot\rvds\system_ARMCM0.c 0x00000000   Number         0  system_armcm0.o ABSOLUTE
    ..\..\..\src\plf\refip\src\arch\main\ble\arch_main.c 0x00000000   Number         0  arch_main.o ABSOLUTE
    ..\..\..\src\plf\refip\src\arch\main\ble\arch_sleep.c 0x00000000   Number         0  arch_sleep.o ABSOLUTE
    ..\..\..\src\plf\refip\src\arch\main\ble\arch_system.c 0x00000000   Number         0  arch_system.o ABSOLUTE
    ..\..\..\src\plf\refip\src\arch\main\ble\hardfault_handler.c 0x00000000   Number         0  hardfault_handler.o ABSOLUTE
    ..\..\..\src\plf\refip\src\arch\main\ble\jump_table.c 0x00000000   Number         0  jump_table.o ABSOLUTE
    ..\..\..\src\plf\refip\src\arch\main\ble\nmi_handler.c 0x00000000   Number         0  nmi_handler.o ABSOLUTE
    ..\..\..\src\plf\refip\src\driver\adc\adc.c 0x00000000   Number         0  adc.o ABSOLUTE
    ..\..\..\src\plf\refip\src\driver\gpio\gpio.c 0x00000000   Number         0  gpio.o ABSOLUTE
    ..\..\..\src\plf\refip\src\driver\pwm\pwm.c 0x00000000   Number         0  pwm.o ABSOLUTE
    ..\..\..\src\plf\refip\src\driver\spi\spi.c 0x00000000   Number         0  spi.o ABSOLUTE
    ..\..\..\src\plf\refip\src\driver\spi_flash\spi_flash.c 0x00000000   Number         0  spi_flash.o ABSOLUTE
    ..\..\..\src\plf\refip\src\driver\uart\uart.c 0x00000000   Number         0  uart.o ABSOLUTE
    handlers.s                               0x00000000   Number         0  handlers.o ABSOLUTE
    init.s                                   0x00000000   Number         0  init.o ABSOLUTE
    heap_db_area                             0x00080768   Section     1036  jump_table.o(heap_db_area)
    heap_env_area                            0x00080b74   Section      340  jump_table.o(heap_env_area)
    heap_msg_area                            0x00080cc8   Section     1324  jump_table.o(heap_msg_area)
    BLE_exchange_memory                      0x00082a20   Section     1502  arch_main.o(BLE_exchange_memory)
    RESET                                    0x20000000   Section      160  boot_vectors.o(RESET)
    jump_table_mem_area                      0x20000160   Section      352  jump_table.o(jump_table_mem_area)
    timeout_table_area                       0x200002c0   Section      100  gapm.o(timeout_table_area)
    nvds_data_storage_area                   0x20000340   Section      164  nvds.o(nvds_data_storage_area)
    .ARM.Collect$$$$00000000                 0x20000440   Section        0  entry.o(.ARM.Collect$$$$00000000)
    .ARM.Collect$$$$00000001                 0x20000440   Section        4  entry2.o(.ARM.Collect$$$$00000001)
    .ARM.Collect$$$$00000004                 0x20000444   Section        4  entry5.o(.ARM.Collect$$$$00000004)
    .ARM.Collect$$$$00000008                 0x20000448   Section        0  entry7b.o(.ARM.Collect$$$$00000008)
    .ARM.Collect$$$$0000000A                 0x20000448   Section        0  entry8b.o(.ARM.Collect$$$$0000000A)
    .ARM.Collect$$$$0000000B                 0x20000448   Section        8  entry9a.o(.ARM.Collect$$$$0000000B)
    .ARM.Collect$$$$0000000D                 0x20000450   Section        0  entry10a.o(.ARM.Collect$$$$0000000D)
    .ARM.Collect$$$$0000000F                 0x20000450   Section        0  entry11a.o(.ARM.Collect$$$$0000000F)
    .ARM.Collect$$$$00002712                 0x20000450   Section        4  entry2.o(.ARM.Collect$$$$00002712)
    __lit__00000000                          0x20000450   Data           4  entry2.o(.ARM.Collect$$$$00002712)
    .text                                    0x20000454   Section        0  system_armcm0.o(.text)
    .text                                    0x200004a8   Section      108  boot_vectors.o(.text)
    NMI_Handler                              0x200004b1   Thumb Code    24  boot_vectors.o(.text)
    HardFault_Handler                        0x200004c9   Thumb Code    24  boot_vectors.o(.text)
    SVC_Handler                              0x200004e1   Thumb Code    24  boot_vectors.o(.text)
    .text                                    0x20000514   Section        0  hardfault_handler.o(.text)
    .text                                    0x20000570   Section        0  arch_main.o(.text)
    cmp_abs_time                             0x20000571   Thumb Code    22  arch_main.o(.text)
    NVIC_ClearPendingIRQ                     0x20001471   Thumb Code    14  arch_main.o(.text)
    .text                                    0x200014d0   Section        0  jump_table.o(.text)
    .text                                    0x200014d4   Section        0  arch_sleep.o(.text)
    .text                                    0x200015e4   Section        0  nmi_handler.o(.text)
    .text                                    0x20001670   Section        0  periph_setup.o(.text)
    .text                                    0x20001d08   Section        0  arch_system.o(.text)
    .text                                    0x20001fdc   Section        0  rf_580.o(.text)
    rf_sleep                                 0x20002021   Thumb Code    14  rf_580.o(.text)
    RADIOCNTL_Handler                        0x2000202f   Thumb Code     2  rf_580.o(.text)
    rf_rssi_convert                          0x20002107   Thumb Code     4  rf_580.o(.text)
    .text                                    0x200022c4   Section        0  gpio.o(.text)
    .text                                    0x20002324   Section        0  uart.o(.text)
    .text                                    0x20002444   Section        0  pwm.o(.text)
    .text                                    0x20002584   Section        0  adc.o(.text)
    .text                                    0x200026ac   Section        0  spi.o(.text)
    .text                                    0x200027f4   Section        0  spi_flash.o(.text)
    .text                                    0x20002cb4   Section        0  ke_task.obj(.text)
    ke_task_schedule                         0x20002cb5   Thumb Code   146  ke_task.obj(.text)
    .text                                    0x20002d6c   Section        0  ch_map.obj(.text)
    .text                                    0x20002e30   Section        0  atts_task.obj(.text)
    .text                                    0x20002f1c   Section        0  smpc.obj(.text)
    .text                                    0x20003008   Section        0  smpc_task.obj(.text)
    .text                                    0x20003214   Section        0  gapm_util.obj(.text)
    gapm_adv_sanity                          0x200032e5   Thumb Code   170  gapm_util.obj(.text)
    .text                                    0x20003394   Section        0  nvds.o(.text)
    .text                                    0x2000360c   Section        0  rwip.o(.text)
    .text                                    0x20003794   Section        0  rwble.o(.text)
    .text                                    0x20003948   Section        0  prf_utils.o(.text)
    .text                                    0x20003a88   Section        0  streamdatad.o(.text)
    .text                                    0x20003aac   Section        0  streamdatad_task.o(.text)
    streamdatad_create_db_req_handler        0x20003aad   Thumb Code    80  streamdatad_task.o(.text)
    streamdatad_enable_req_handler           0x20003afd   Thumb Code    84  streamdatad_task.o(.text)
    streamdatad_disable_req_handler          0x20003b51   Thumb Code    14  streamdatad_task.o(.text)
    gattc_write_cmd_ind_handler              0x20003b5f   Thumb Code   278  streamdatad_task.o(.text)
    .text                                    0x20003ca0   Section        0  spotar_task.o(.text)
    spotar_create_db_req_handler             0x20003ca1   Thumb Code   508  spotar_task.o(.text)
    spotar_status_update_req_handler         0x20003e9d   Thumb Code    74  spotar_task.o(.text)
    spotar_mem_info_update_req_handler       0x20003ee7   Thumb Code    22  spotar_task.o(.text)
    spotar_enable_req_handler                0x20003efd   Thumb Code    92  spotar_task.o(.text)
    gattc_write_cmd_ind_handler              0x20003f59   Thumb Code   392  spotar_task.o(.text)
    gapc_disconnect_ind_handler              0x200040e1   Thumb Code    22  spotar_task.o(.text)
    .text                                    0x200040fc   Section        0  spotar.o(.text)
    .text                                    0x20004178   Section        0  diss_task.o(.text)
    diss_create_db_req_handler               0x20004179   Thumb Code    86  diss_task.o(.text)
    diss_set_char_val_req_handler            0x200041cf   Thumb Code    74  diss_task.o(.text)
    diss_enable_req_handler                  0x20004219   Thumb Code    58  diss_task.o(.text)
    gapc_disconnect_ind_handler              0x20004253   Thumb Code    22  diss_task.o(.text)
    .text                                    0x20004274   Section        0  diss.o(.text)
    .text                                    0x20004318   Section        0  app.o(.text)
    .text                                    0x200044ac   Section        0  app_sec.o(.text)
    .text                                    0x2000455c   Section        0  app_sec_task.o(.text)
    .text                                    0x20004680   Section        0  app_task.o(.text)
    .text                                    0x200047bc   Section        0  app_throughput_peripheral_proj.o(.text)
    .text                                    0x20004e90   Section        0  app_streamdatad.o(.text)
    .text                                    0x20004ed0   Section        0  app_streamdatad_task.o(.text)
    .text                                    0x20004ef8   Section        0  app_spotar_task.o(.text)
    .text                                    0x20005058   Section        0  app_spotar.o(.text)
    .text                                    0x200058e0   Section        0  app_dis_task.o(.text)
    .text                                    0x20005a44   Section        0  app_dis.o(.text)
    .text                                    0x20005a84   Section        0  fmul.o(.text)
    .text                                    0x20005afe   Section        0  fdiv.o(.text)
    .text                                    0x20005b7a   Section        0  fscalb.o(.text)
    .text                                    0x20005b94   Section        0  dadd.o(.text)
    .text                                    0x20005cf8   Section        0  ddiv.o(.text)
    .text                                    0x20005de8   Section        0  ffltui.o(.text)
    .text                                    0x20005df6   Section        0  ffixui.o(.text)
    .text                                    0x20005e20   Section        0  dfixui.o(.text)
    .text                                    0x20005e5c   Section        0  f2d.o(.text)
    .text                                    0x20005e84   Section        0  d2f.o(.text)
    .text                                    0x20005ebc   Section        0  llsshr.o(.text)
    .text                                    0x20005ee2   Section        0  fepilogue.o(.text)
    .text                                    0x20005f64   Section       36  init.o(.text)
    i.GPIO_ConfigurePin                      0x200064c8   Section        0  gpio.o(i.GPIO_ConfigurePin)
    i.GPIO_EnableIRQ                         0x2000651c   Section        0  gpio.o(i.GPIO_EnableIRQ)
    i.GPIO_GetPinStatus                      0x20006780   Section        0  gpio.o(i.GPIO_GetPinStatus)
    i.GPIO_ResetIRQ                          0x200067c8   Section        0  gpio.o(i.GPIO_ResetIRQ)
    i.GPIO_SetActive                         0x20006860   Section        0  gpio.o(i.GPIO_SetActive)
    i.GPIO_SetInactive                       0x200068a4   Section        0  gpio.o(i.GPIO_SetInactive)
    i.GPIO_SetPinFunction                    0x200068e8   Section        0  gpio.o(i.GPIO_SetPinFunction)
    i.GPIO_init                              0x20006930   Section        0  gpio.o(i.GPIO_init)
    i.__scatterload_copy                     0x200069c4   Section       14  handlers.o(i.__scatterload_copy)
    i.__scatterload_null                     0x200069d2   Section        2  handlers.o(i.__scatterload_null)
    i.__scatterload_zeroinit                 0x200069d4   Section       14  handlers.o(i.__scatterload_zeroinit)
    i.set_tmr_div                            0x200069e4   Section        0  pwm.o(i.set_tmr_div)
    i.set_tmr_enable                         0x200069fc   Section        0  pwm.o(i.set_tmr_enable)
    i.timer0_start                           0x20006a14   Section        0  pwm.o(i.timer0_start)
    i.timer2_enable                          0x20006a24   Section        0  pwm.o(i.timer2_enable)
    i.timer2_set_hw_pause                    0x20006a3c   Section        0  pwm.o(i.timer2_set_hw_pause)
    i.timer2_set_pwm2_duty_cycle             0x20006a54   Section        0  pwm.o(i.timer2_set_pwm2_duty_cycle)
    i.timer2_set_sw_pause                    0x20006a60   Section        0  pwm.o(i.timer2_set_sw_pause)
    .constdata                               0x20006a78   Section       32  arch_main.o(.constdata)
    .constdata                               0x20006a98   Section       22  arch_main.o(.constdata)
    .constdata                               0x20006aae   Section        8  gpio.o(.constdata)
    p_mask                                   0x20006aae   Data           8  gpio.o(.constdata)
    .constdata                               0x20006ab8   Section       80  spi_flash.o(.constdata)
    .constdata                               0x20006b08   Section       16  streamdatad.o(.constdata)
    TASK_DESC_STREAMD                        0x20006b08   Data          16  streamdatad.o(.constdata)
    .constdata                               0x20006b18   Section        2  streamdatad_task.o(.constdata)
    streamdatad_svc                          0x20006b18   Data           2  streamdatad_task.o(.constdata)
    .constdata                               0x20006b1a   Section        5  streamdatad_task.o(.constdata)
    streamdatad_enable_char                  0x20006b1a   Data           5  streamdatad_task.o(.constdata)
    .constdata                               0x20006b1f   Section        5  streamdatad_task.o(.constdata)
    streamdatad_d0_char                      0x20006b1f   Data           5  streamdatad_task.o(.constdata)
    .constdata                               0x20006b24   Section       25  streamdatad_task.o(.constdata)
    streamdatad_enable_desc                  0x20006b24   Data          25  streamdatad_task.o(.constdata)
    .constdata                               0x20006b3d   Section        5  streamdatad_task.o(.constdata)
    streamdatad_d_desc                       0x20006b3d   Data           5  streamdatad_task.o(.constdata)
    .constdata                               0x20006b44   Section      108  streamdatad_task.o(.constdata)
    streamdatad_att_db                       0x20006b44   Data         108  streamdatad_task.o(.constdata)
    .constdata                               0x20006bb0   Section        8  streamdatad_task.o(.constdata)
    .constdata                               0x20006bb8   Section        8  streamdatad_task.o(.constdata)
    .constdata                               0x20006bc0   Section       16  streamdatad_task.o(.constdata)
    .constdata                               0x20006bd0   Section       24  streamdatad_task.o(.constdata)
    .constdata                               0x20006be8   Section        8  streamdatad_task.o(.constdata)
    .constdata                               0x20006bf0   Section        8  spotar_task.o(.constdata)
    .constdata                               0x20006bf8   Section        8  spotar_task.o(.constdata)
    .constdata                               0x20006c00   Section       24  spotar_task.o(.constdata)
    .constdata                               0x20006c18   Section        8  spotar_task.o(.constdata)
    .constdata                               0x20006c20   Section       24  spotar_task.o(.constdata)
    .constdata                               0x20006c38   Section        8  spotar_task.o(.constdata)
    .constdata                               0x20006c40   Section        2  spotar.o(.constdata)
    .constdata                               0x20006c42   Section       16  spotar.o(.constdata)
    .constdata                               0x20006c52   Section       16  spotar.o(.constdata)
    .constdata                               0x20006c62   Section       16  spotar.o(.constdata)
    .constdata                               0x20006c72   Section       16  spotar.o(.constdata)
    .constdata                               0x20006c82   Section       16  spotar.o(.constdata)
    .constdata                               0x20006c92   Section       16  spotar.o(.constdata)
    .constdata                               0x20006ca4   Section       16  spotar.o(.constdata)
    TASK_DESC_SPOTAR                         0x20006ca4   Data          16  spotar.o(.constdata)
    .constdata                               0x20006cb4   Section        8  diss_task.o(.constdata)
    .constdata                               0x20006cbc   Section       16  diss_task.o(.constdata)
    .constdata                               0x20006ccc   Section        8  diss_task.o(.constdata)
    .constdata                               0x20006cd4   Section       24  diss_task.o(.constdata)
    .constdata                               0x20006cec   Section        8  diss_task.o(.constdata)
    .constdata                               0x20006cf4   Section      228  diss.o(.constdata)
    .constdata                               0x20006dd8   Section        2  diss.o(.constdata)
    .constdata                               0x20006dda   Section        5  diss.o(.constdata)
    .constdata                               0x20006ddf   Section        5  diss.o(.constdata)
    .constdata                               0x20006de4   Section        5  diss.o(.constdata)
    .constdata                               0x20006de9   Section        5  diss.o(.constdata)
    .constdata                               0x20006dee   Section        5  diss.o(.constdata)
    .constdata                               0x20006df3   Section        5  diss.o(.constdata)
    .constdata                               0x20006df8   Section        5  diss.o(.constdata)
    .constdata                               0x20006dfd   Section        5  diss.o(.constdata)
    .constdata                               0x20006e02   Section        5  diss.o(.constdata)
    .constdata                               0x20006e08   Section       16  diss.o(.constdata)
    TASK_DESC_DISS                           0x20006e08   Data          16  diss.o(.constdata)
    .constdata                               0x20006e18   Section       16  app.o(.constdata)
    TASK_DESC_APP                            0x20006e18   Data          16  app.o(.constdata)
    .constdata                               0x20006e28   Section      208  app_task.o(.constdata)
    .constdata                               0x20006ef8   Section        8  app_task.o(.constdata)
    .conststring                             0x20006f00   Section       13  gpio.o(.conststring)
    .data                                    0x20006f50   Section       12  arch_main.o(.data)
    .data                                    0x20006f5c   Section       19  periph_setup.o(.data)
    .data                                    0x20006f6f   Section       19  spotar.o(.data)
    .data                                    0x20006f82   Section       19  spotar.o(.data)
    .data                                    0x20006f95   Section       19  spotar.o(.data)
    .data                                    0x20006fa8   Section       19  spotar.o(.data)
    .data                                    0x20006fbb   Section       19  spotar.o(.data)
    .data                                    0x20006fce   Section       19  spotar.o(.data)
    .data                                    0x20006fe1   Section        1  app_throughput_peripheral_proj.o(.data)
    spotar_patch_area                        0x20006fe4   Section      336  app_spotar.o(spotar_patch_area)
    .bss                                     0x20008000   Section        6  periph_setup.o(.bss)
    .bss                                     0x20008006   Section        2  pwm.o(.bss)
    .bss                                     0x20008008   Section        2  spi.o(.bss)
    .bss                                     0x2000800c   Section       16  spi_flash.o(.bss)
    .bss                                     0x2000801c   Section        7  streamdatad_task.o(.bss)
    .bss                                     0x20008023   Section        1  streamdatad_task.o(.bss)
    .bss                                     0x20008024   Section        1  app.o(.bss)
    .bss                                     0x20008025   Section        1  app_throughput_peripheral_proj.o(.bss)
    retention_mem_area0                      0x20008026   Section        1  arch_main.o(retention_mem_area0)
    retention_mem_area0                      0x20008027   Section        4  arch_sleep.o(retention_mem_area0)
    retention_mem_area0                      0x2000802c   Section       20  arch_system.o(retention_mem_area0)
    retention_mem_area0                      0x20008040   Section        6  nvds.o(retention_mem_area0)
    retention_mem_area0                      0x20008046   Section        1  rwble.o(retention_mem_area0)
    retention_mem_area0                      0x20008047   Section        1  spotar_task.o(retention_mem_area0)
    retention_mem_area0                      0x20008048   Section        8  spotar.o(retention_mem_area0)
    retention_mem_area0                      0x20008050   Section        1  diss_task.o(retention_mem_area0)
    retention_mem_area0                      0x20008052   Section       18  diss.o(retention_mem_area0)
    retention_mem_area0                      0x20008064   Section       12  app.o(retention_mem_area0)
    retention_mem_area0                      0x20008070   Section       36  app_sec.o(retention_mem_area0)
    retention_mem_area0                      0x20008094   Section        1  app_task.o(retention_mem_area0)
    retention_mem_area0                      0x20008098   Section       36  app_spotar.o(retention_mem_area0)
    heap_mem_area_not_ret                    0x20008bf4   Section     1036  jump_table.o(heap_mem_area_not_ret)
    .bss                                     0x20009020   Section       60  arch_main.o(.bss)
    .bss                                     0x20009060   Section      196  gpio.o(.bss)
    .bss                                     0x20009124   Section       76  uart.o(.bss)
    .bss                                     0x20009170   Section       38  pwm.o(.bss)
    CNT                                      0x20009170   Data           1  pwm.o(.bss)
    .bss                                     0x20009196   Section       40  streamdatad.o(.bss)
    .bss                                     0x200091be   Section       36  app_throughput_peripheral_proj.o(.bss)
    MotorFlag                                0x200091c3   Data           1  app_throughput_peripheral_proj.o(.bss)
    LowPower                                 0x200091c4   Data           1  app_throughput_peripheral_proj.o(.bss)
    PowerOff                                 0x200091c5   Data           1  app_throughput_peripheral_proj.o(.bss)
    LEDCnt                                   0x200091c7   Data           1  app_throughput_peripheral_proj.o(.bss)
    timer_flag                               0x200091c8   Data           1  app_throughput_peripheral_proj.o(.bss)
    STACK                                    0x20009200   Section     1536  boot_vectors.o(STACK)
    .ARM.__AT_0x50000004                     0x50000004   Section        4  pwm.o(.ARM.__AT_0x50000004)
    .ARM.__AT_0x50003400                     0x50003400   Section        4  pwm.o(.ARM.__AT_0x50003400)
    .ARM.__AT_0x50003410                     0x50003410   Section        4  pwm.o(.ARM.__AT_0x50003410)

    Global Symbols

    Symbol Name                              Value     Ov Type        Size  Object(Section)

    BuildAttributes$$THM_ISAv3M$S$PE$A:L22$X:L11$S22$IEEE1$IW$USESV6$~STKCKD$USESV7$~SHL$OTIME$ROPI$EBA8$MICROLIB$REQ8$PRES8$EABIv2 0x00000000   Number         0  anon$$obj.o ABSOLUTE
    __ARM_use_no_argv                        0x00000000   Number         0  rom_symdef.txt ABSOLUTE
    __cpp_initialize__aeabi_                  - Undefined Weak Reference
    __cxa_finalize                            - Undefined Weak Reference
    __decompress                              - Undefined Weak Reference
    _clock_init                               - Undefined Weak Reference
    _microlib_exit                            - Undefined Weak Reference
    __Vectors_Size                           0x000000a0   Number         0  boot_vectors.o ABSOLUTE
    exec_patching_spota                      0x000210b1   Thumb Code     0  rom_symdef.txt ABSOLUTE
    get_patching_spota_length                0x00021171   Thumb Code     0  rom_symdef.txt ABSOLUTE
    $Super$$GPIO0_Handler                    0x00021b4b   Thumb Code     0  rom_symdef.txt ABSOLUTE
    $Super$$GPIO2_Handler                    0x00021b4b   Thumb Code     0  rom_symdef.txt ABSOLUTE
    $Super$$GPIO4_Handler                    0x00021b4b   Thumb Code     0  rom_symdef.txt ABSOLUTE
    ADC_Handler                              0x00021b4b   Thumb Code     0  rom_symdef.txt ABSOLUTE
    I2C_Handler                              0x00021b4b   Thumb Code     0  rom_symdef.txt ABSOLUTE
    RFCAL_Handler                            0x00021b4b   Thumb Code     0  rom_symdef.txt ABSOLUTE
    SPI_Handler                              0x00021b4b   Thumb Code     0  rom_symdef.txt ABSOLUTE
    set_system_clocks                        0x00021b55   Thumb Code     0  rom_symdef.txt ABSOLUTE
    set_peripheral_clocks                    0x00021b8b   Thumb Code     0  rom_symdef.txt ABSOLUTE
    rf_workaround_init                       0x00021d23   Thumb Code     0  rom_symdef.txt ABSOLUTE
    get_stack_usage                          0x00021d79   Thumb Code     0  rom_symdef.txt ABSOLUTE
    platform_reset                           0x00021d7d   Thumb Code     0  rom_symdef.txt ABSOLUTE
    platform_reset_func                      0x00021d83   Thumb Code     0  rom_symdef.txt ABSOLUTE
    main                                     0x000220c7   Thumb Code     0  rom_symdef.txt ABSOLUTE
    rwip_eif_get                             0x000220cd   Thumb Code     0  rom_symdef.txt ABSOLUTE
    rwip_eif_get_func                        0x000220d5   Thumb Code     0  rom_symdef.txt ABSOLUTE
    app_get_sleep_mode                       0x0002211f   Thumb Code     0  rom_symdef.txt ABSOLUTE
    co_buf_init                              0x00022141   Thumb Code     0  rom_symdef.txt ABSOLUTE
    co_buf_init_deep_sleep                   0x000221a3   Thumb Code     0  rom_symdef.txt ABSOLUTE
    co_buf_rx_free                           0x00022205   Thumb Code     0  rom_symdef.txt ABSOLUTE
    co_list_init                             0x00022225   Thumb Code     0  rom_symdef.txt ABSOLUTE
    co_list_push_back                        0x0002222f   Thumb Code     0  rom_symdef.txt ABSOLUTE
    co_list_pool_init                        0x0002224b   Thumb Code     0  rom_symdef.txt ABSOLUTE
    co_list_push_front                       0x000222ab   Thumb Code     0  rom_symdef.txt ABSOLUTE
    co_list_pop_front                        0x000222bf   Thumb Code     0  rom_symdef.txt ABSOLUTE
    co_list_extract                          0x000222d3   Thumb Code     0  rom_symdef.txt ABSOLUTE
    co_list_find                             0x000222fb   Thumb Code     0  rom_symdef.txt ABSOLUTE
    co_list_merge                            0x00022311   Thumb Code     0  rom_symdef.txt ABSOLUTE
    co_bdaddr_compare                        0x00022321   Thumb Code     0  rom_symdef.txt ABSOLUTE
    dbg_init                                 0x0002233d   Thumb Code     0  rom_symdef.txt ABSOLUTE
    dbg_platform_reset_complete              0x00022351   Thumb Code     0  rom_symdef.txt ABSOLUTE
    llc_init                                 0x000228b5   Thumb Code     0  rom_symdef.txt ABSOLUTE
    llc_stop                                 0x000228e5   Thumb Code     0  rom_symdef.txt ABSOLUTE
    llc_reset                                0x00022909   Thumb Code     0  rom_symdef.txt ABSOLUTE
    llc_create_con_cmd_complete_send         0x00022931   Thumb Code     0  rom_symdef.txt ABSOLUTE
    llc_start                                0x000229a9   Thumb Code     0  rom_symdef.txt ABSOLUTE
    llc_discon_event_complete_send           0x00022a6f   Thumb Code     0  rom_symdef.txt ABSOLUTE
    llc_con_update_cmd_complete_send         0x00022a91   Thumb Code     0  rom_symdef.txt ABSOLUTE
    llc_ltk_req_send                         0x00022aeb   Thumb Code     0  rom_symdef.txt ABSOLUTE
    llc_feats_rd_event_send                  0x00022b29   Thumb Code     0  rom_symdef.txt ABSOLUTE
    llc_version_rd_event_send                0x00022b69   Thumb Code     0  rom_symdef.txt ABSOLUTE
    llc_common_cmd_complete_send             0x00022ba1   Thumb Code     0  rom_symdef.txt ABSOLUTE
    llc_common_cmd_status_send               0x00022bb7   Thumb Code     0  rom_symdef.txt ABSOLUTE
    llc_common_enc_change_evt_send           0x00022bcd   Thumb Code     0  rom_symdef.txt ABSOLUTE
    llc_common_nb_of_pkt_comp_evt_send       0x00022bf5   Thumb Code     0  rom_symdef.txt ABSOLUTE
    llc_con_update_ind                       0x00022c1d   Thumb Code     0  rom_symdef.txt ABSOLUTE
    llc_map_update_ind                       0x00022c83   Thumb Code     0  rom_symdef.txt ABSOLUTE
    llc_chnl_map_req_send                    0x00022d21   Thumb Code     0  rom_symdef.txt ABSOLUTE
    llc_add_bad_chnl                         0x00022d3b   Thumb Code     0  rom_symdef.txt ABSOLUTE
    llc_version_ind_pdu_send                 0x00022e29   Thumb Code     0  rom_symdef.txt ABSOLUTE
    llc_ch_map_update_pdu_send               0x00022e5f   Thumb Code     0  rom_symdef.txt ABSOLUTE
    llc_pause_enc_req_pdu_send               0x00022e9f   Thumb Code     0  rom_symdef.txt ABSOLUTE
    llc_pause_enc_rsp_pdu_send               0x00022edb   Thumb Code     0  rom_symdef.txt ABSOLUTE
    llc_enc_req_pdu_send                     0x00022f2b   Thumb Code     0  rom_symdef.txt ABSOLUTE
    llc_enc_rsp_pdu_send                     0x00022feb   Thumb Code     0  rom_symdef.txt ABSOLUTE
    llc_start_enc_rsp_pdu_send               0x0002307b   Thumb Code     0  rom_symdef.txt ABSOLUTE
    llc_reject_ind_pdu_send                  0x000230bd   Thumb Code     0  rom_symdef.txt ABSOLUTE
    llc_con_update_pdu_send                  0x000230e7   Thumb Code     0  rom_symdef.txt ABSOLUTE
    llc_feats_req_pdu_send                   0x0002312b   Thumb Code     0  rom_symdef.txt ABSOLUTE
    llc_start_enc_req_pdu_send               0x00023169   Thumb Code     0  rom_symdef.txt ABSOLUTE
    llc_terminate_ind_pdu_send               0x0002321f   Thumb Code     0  rom_symdef.txt ABSOLUTE
    llc_unknown_rsp_send_pdu                 0x00023293   Thumb Code     0  rom_symdef.txt ABSOLUTE
    llc_feats_req_ind                        0x000232b3   Thumb Code     0  rom_symdef.txt ABSOLUTE
    llc_feats_rsp_ind                        0x000232f7   Thumb Code     0  rom_symdef.txt ABSOLUTE
    llc_unknown_rsp_ind                      0x0002333f   Thumb Code     0  rom_symdef.txt ABSOLUTE
    llc_vers_ind_ind                         0x00023341   Thumb Code     0  rom_symdef.txt ABSOLUTE
    llc_con_update_req_ind                   0x000233bf   Thumb Code     0  rom_symdef.txt ABSOLUTE
    llc_ch_map_req_ind                       0x0002341b   Thumb Code     0  rom_symdef.txt ABSOLUTE
    llc_terminate_ind                        0x00023467   Thumb Code     0  rom_symdef.txt ABSOLUTE
    llc_reject_ind                           0x0002349f   Thumb Code     0  rom_symdef.txt ABSOLUTE
    llc_pause_enc_req_ind                    0x000234c7   Thumb Code     0  rom_symdef.txt ABSOLUTE
    llc_pause_enc_rsp_ind                    0x000234f5   Thumb Code     0  rom_symdef.txt ABSOLUTE
    llc_enc_req_ind                          0x00023563   Thumb Code     0  rom_symdef.txt ABSOLUTE
    llc_enc_rsp_ind                          0x00023625   Thumb Code     0  rom_symdef.txt ABSOLUTE
    llc_start_enc_req_ind                    0x000236cf   Thumb Code     0  rom_symdef.txt ABSOLUTE
    llc_start_enc_rsp_ind                    0x0002373b   Thumb Code     0  rom_symdef.txt ABSOLUTE
    llc_cntl_rcv                             0x000237cb   Thumb Code     0  rom_symdef.txt ABSOLUTE
    llc_data_rcv                             0x00023861   Thumb Code     0  rom_symdef.txt ABSOLUTE
    llc_util_get_free_conhdl                 0x00024825   Thumb Code     0  rom_symdef.txt ABSOLUTE
    llc_util_dicon_procedure                 0x00024855   Thumb Code     0  rom_symdef.txt ABSOLUTE
    llc_util_gen_skdx                        0x00024885   Thumb Code     0  rom_symdef.txt ABSOLUTE
    llc_util_update_channel_map              0x000248a7   Thumb Code     0  rom_symdef.txt ABSOLUTE
    llc_util_set_llcp_discard_enable         0x000248b9   Thumb Code     0  rom_symdef.txt ABSOLUTE
    enable_BLE_core_irq                      0x00024909   Thumb Code     0  rom_symdef.txt ABSOLUTE
    enable_BLE_core_irq_func                 0x0002490f   Thumb Code     0  rom_symdef.txt ABSOLUTE
    lld_init                                 0x000249d1   Thumb Code     0  rom_symdef.txt ABSOLUTE
    lld_init_func                            0x000249d7   Thumb Code     0  rom_symdef.txt ABSOLUTE
    lld_reset                                0x00024b79   Thumb Code     0  rom_symdef.txt ABSOLUTE
    lld_scan_start                           0x00024bcb   Thumb Code     0  rom_symdef.txt ABSOLUTE
    lld_scan_stop                            0x00024c7d   Thumb Code     0  rom_symdef.txt ABSOLUTE
    lld_con_start                            0x00024c89   Thumb Code     0  rom_symdef.txt ABSOLUTE
    lld_move_to_master                       0x00024ed3   Thumb Code     0  rom_symdef.txt ABSOLUTE
    lld_con_update_req                       0x00024edb   Thumb Code     0  rom_symdef.txt ABSOLUTE
    lld_ch_map_req                           0x00024f1b   Thumb Code     0  rom_symdef.txt ABSOLUTE
    lld_adv_start                            0x00024f23   Thumb Code     0  rom_symdef.txt ABSOLUTE
    lld_adv_stop                             0x00025013   Thumb Code     0  rom_symdef.txt ABSOLUTE
    lld_ch_map_ind                           0x0002501f   Thumb Code     0  rom_symdef.txt ABSOLUTE
    lld_con_update_ind                       0x00025033   Thumb Code     0  rom_symdef.txt ABSOLUTE
    lld_move_to_slave                        0x00025047   Thumb Code     0  rom_symdef.txt ABSOLUTE
    lld_con_stop                             0x00025139   Thumb Code     0  rom_symdef.txt ABSOLUTE
    lld_test_stop                            0x00025143   Thumb Code     0  rom_symdef.txt ABSOLUTE
    lld_test_stop_func                       0x00025149   Thumb Code     0  rom_symdef.txt ABSOLUTE
    lld_crypt_isr                            0x00025161   Thumb Code     0  rom_symdef.txt ABSOLUTE
    lld_test_mode_tx                         0x00025171   Thumb Code     0  rom_symdef.txt ABSOLUTE
    lld_test_mode_tx_func                    0x00025177   Thumb Code     0  rom_symdef.txt ABSOLUTE
    lld_test_mode_rx                         0x00025229   Thumb Code     0  rom_symdef.txt ABSOLUTE
    lld_test_mode_rx_func                    0x0002522f   Thumb Code     0  rom_symdef.txt ABSOLUTE
    lld_data_tx_loop                         0x0002542d   Thumb Code     0  rom_symdef.txt ABSOLUTE
    lld_data_tx_push                         0x00025453   Thumb Code     0  rom_symdef.txt ABSOLUTE
    lld_data_tx_prog                         0x000254d9   Thumb Code     0  rom_symdef.txt ABSOLUTE
    lld_data_check                           0x000255b5   Thumb Code     0  rom_symdef.txt ABSOLUTE
    lld_data_tx_flush                        0x00025603   Thumb Code     0  rom_symdef.txt ABSOLUTE
    lld_evt_init                             0x00025f5f   Thumb Code     0  rom_symdef.txt ABSOLUTE
    lld_evt_try_free                         0x00025f65   Thumb Code     0  rom_symdef.txt ABSOLUTE
    lld_evt_end                              0x00025f81   Thumb Code     0  rom_symdef.txt ABSOLUTE
    lld_evt_rx                               0x00026023   Thumb Code     0  rom_symdef.txt ABSOLUTE
    lld_evt_schedule                         0x00026041   Thumb Code     0  rom_symdef.txt ABSOLUTE
    lld_evt_init_func                        0x000260e9   Thumb Code     0  rom_symdef.txt ABSOLUTE
    lld_evt_conhdl2evt                       0x00026147   Thumb Code     0  rom_symdef.txt ABSOLUTE
    lld_evt_ack_received                     0x0002615d   Thumb Code     0  rom_symdef.txt ABSOLUTE
    lld_evt_schedule_next                    0x00026169   Thumb Code     0  rom_symdef.txt ABSOLUTE
    lld_evt_delete                           0x00026277   Thumb Code     0  rom_symdef.txt ABSOLUTE
    lld_evt_scan_create                      0x000262e7   Thumb Code     0  rom_symdef.txt ABSOLUTE
    lld_evt_move_to_master                   0x00026323   Thumb Code     0  rom_symdef.txt ABSOLUTE
    lld_evt_update_create                    0x000263c3   Thumb Code     0  rom_symdef.txt ABSOLUTE
    lld_evt_ch_map_update_req                0x00026411   Thumb Code     0  rom_symdef.txt ABSOLUTE
    lld_evt_move_to_slave                    0x00026429   Thumb Code     0  rom_symdef.txt ABSOLUTE
    lld_evt_slave_update                     0x00026531   Thumb Code     0  rom_symdef.txt ABSOLUTE
    lld_evt_ch_map_update_ind                0x000265b9   Thumb Code     0  rom_symdef.txt ABSOLUTE
    lld_evt_adv_create                       0x000265cd   Thumb Code     0  rom_symdef.txt ABSOLUTE
    lld_evt_start_isr                        0x0002661b   Thumb Code     0  rom_symdef.txt ABSOLUTE
    lld_evt_end_isr                          0x0002662b   Thumb Code     0  rom_symdef.txt ABSOLUTE
    lld_evt_rx_isr                           0x0002663b   Thumb Code     0  rom_symdef.txt ABSOLUTE
    lld_evt_timer_isr                        0x0002664b   Thumb Code     0  rom_symdef.txt ABSOLUTE
    lld_sleep_us_2_lpcycles                  0x00026821   Thumb Code     0  rom_symdef.txt ABSOLUTE
    lld_sleep_us_2_lpcycles_func             0x00026827   Thumb Code     0  rom_symdef.txt ABSOLUTE
    lld_sleep_lpcycles_2_us                  0x00026833   Thumb Code     0  rom_symdef.txt ABSOLUTE
    lld_sleep_lpcycles_2_us_func             0x00026839   Thumb Code     0  rom_symdef.txt ABSOLUTE
    lld_sleep_compensate                     0x0002684b   Thumb Code     0  rom_symdef.txt ABSOLUTE
    lld_sleep_compensate_func                0x00026851   Thumb Code     0  rom_symdef.txt ABSOLUTE
    lld_sleep_init                           0x0002687b   Thumb Code     0  rom_symdef.txt ABSOLUTE
    lld_sleep_enter                          0x000268c7   Thumb Code     0  rom_symdef.txt ABSOLUTE
    lld_sleep_wakeup                         0x000268ef   Thumb Code     0  rom_symdef.txt ABSOLUTE
    lld_sleep_wakeup_end                     0x0002691f   Thumb Code     0  rom_symdef.txt ABSOLUTE
    lld_sleep_check                          0x0002692b   Thumb Code     0  rom_symdef.txt ABSOLUTE
    lld_util_get_bd_address                  0x000269b5   Thumb Code     0  rom_symdef.txt ABSOLUTE
    lld_util_set_bd_address                  0x000269d5   Thumb Code     0  rom_symdef.txt ABSOLUTE
    llm_wl_clr                               0x00026a65   Thumb Code     0  rom_symdef.txt ABSOLUTE
    llm_encryption_done                      0x00026a9b   Thumb Code     0  rom_symdef.txt ABSOLUTE
    llm_init                                 0x00026aa1   Thumb Code     0  rom_symdef.txt ABSOLUTE
    llm_common_cmd_complete_send             0x00026c0b   Thumb Code     0  rom_symdef.txt ABSOLUTE
    llm_ble_ready                            0x00026c1d   Thumb Code     0  rom_symdef.txt ABSOLUTE
    llm_con_req_ind                          0x00026c27   Thumb Code     0  rom_symdef.txt ABSOLUTE
    llm_adv_report_set                       0x00026cc5   Thumb Code     0  rom_symdef.txt ABSOLUTE
    llm_le_adv_report_ind                    0x00026d33   Thumb Code     0  rom_symdef.txt ABSOLUTE
    llm_con_req_tx_cfm                       0x00026e11   Thumb Code     0  rom_symdef.txt ABSOLUTE
    llm_common_cmd_status_send               0x00026e9d   Thumb Code     0  rom_symdef.txt ABSOLUTE
    llm_test_mode_start_tx                   0x00026eaf   Thumb Code     0  rom_symdef.txt ABSOLUTE
    llm_test_mode_start_rx                   0x00026f7b   Thumb Code     0  rom_symdef.txt ABSOLUTE
    llm_set_adv_param                        0x00026fb9   Thumb Code     0  rom_symdef.txt ABSOLUTE
    llm_set_adv_en                           0x00027091   Thumb Code     0  rom_symdef.txt ABSOLUTE
    llm_set_adv_data                         0x0002712d   Thumb Code     0  rom_symdef.txt ABSOLUTE
    llm_set_scan_rsp_data                    0x00027159   Thumb Code     0  rom_symdef.txt ABSOLUTE
    llm_set_scan_param                       0x00027187   Thumb Code     0  rom_symdef.txt ABSOLUTE
    llm_set_scan_en                          0x000271df   Thumb Code     0  rom_symdef.txt ABSOLUTE
    llm_wl_dev_add                           0x0002724b   Thumb Code     0  rom_symdef.txt ABSOLUTE
    llm_wl_dev_rem                           0x00027299   Thumb Code     0  rom_symdef.txt ABSOLUTE
    llm_create_con                           0x000272c9   Thumb Code     0  rom_symdef.txt ABSOLUTE
    llm_encryption_start                     0x0002741d   Thumb Code     0  rom_symdef.txt ABSOLUTE
    llm_encryption_done_func                 0x000274a5   Thumb Code     0  rom_symdef.txt ABSOLUTE
    llm_get_chnl_assess_nb_pkt               0x00027539   Thumb Code     0  rom_symdef.txt ABSOLUTE
    llm_get_chnl_assess_nb_bad_pkt           0x00027541   Thumb Code     0  rom_symdef.txt ABSOLUTE
    llm_get_min_rssi                         0x00027549   Thumb Code     0  rom_symdef.txt ABSOLUTE
    llm_delete_event                         0x00027553   Thumb Code     0  rom_symdef.txt ABSOLUTE
    llm_util_bd_addr_in_wl                   0x00027e99   Thumb Code     0  rom_symdef.txt ABSOLUTE
    llm_util_check_address_validity          0x00027f19   Thumb Code     0  rom_symdef.txt ABSOLUTE
    llm_util_check_map_validity              0x00027f29   Thumb Code     0  rom_symdef.txt ABSOLUTE
    llm_util_apply_bd_addr                   0x00027f73   Thumb Code     0  rom_symdef.txt ABSOLUTE
    llm_util_set_public_addr                 0x00027f8b   Thumb Code     0  rom_symdef.txt ABSOLUTE
    llm_util_clear_adv_report                0x00027f99   Thumb Code     0  rom_symdef.txt ABSOLUTE
    llm_util_get_role                        0x00027fbb   Thumb Code     0  rom_symdef.txt ABSOLUTE
    llm_util_set_role                        0x00027fc3   Thumb Code     0  rom_symdef.txt ABSOLUTE
    llm_util_check_evt_mask                  0x00027fcb   Thumb Code     0  rom_symdef.txt ABSOLUTE
    llm_util_get_channel_map                 0x00027feb   Thumb Code     0  rom_symdef.txt ABSOLUTE
    uart_thr_empty_isr                       0x00028019   Thumb Code     0  rom_symdef.txt ABSOLUTE
    uart_init_func                           0x00028063   Thumb Code     0  rom_symdef.txt ABSOLUTE
    uart_flow_on                             0x000280b7   Thumb Code     0  rom_symdef.txt ABSOLUTE
    uart_flow_on_func                        0x000280bd   Thumb Code     0  rom_symdef.txt ABSOLUTE
    uart_flow_off                            0x000280c5   Thumb Code     0  rom_symdef.txt ABSOLUTE
    uart_finish_transfers                    0x000280f5   Thumb Code     0  rom_symdef.txt ABSOLUTE
    uart_finish_transfers_func               0x000280fb   Thumb Code     0  rom_symdef.txt ABSOLUTE
    uart_read                                0x00028113   Thumb Code     0  rom_symdef.txt ABSOLUTE
    uart_read_func                           0x00028119   Thumb Code     0  rom_symdef.txt ABSOLUTE
    uart_write                               0x0002812f   Thumb Code     0  rom_symdef.txt ABSOLUTE
    uart_write_func                          0x00028135   Thumb Code     0  rom_symdef.txt ABSOLUTE
    UART_Handler_func                        0x0002815d   Thumb Code     0  rom_symdef.txt ABSOLUTE
    GPADC_init                               0x00028201   Thumb Code     0  rom_symdef.txt ABSOLUTE
    GPADC_init_func                          0x00028207   Thumb Code     0  rom_symdef.txt ABSOLUTE
    meas_precharge_freq                      0x0002826b   Thumb Code     0  rom_symdef.txt ABSOLUTE
    meas_precharge_freq_func                 0x00028271   Thumb Code     0  rom_symdef.txt ABSOLUTE
    check_pll_lock                           0x000283a7   Thumb Code     0  rom_symdef.txt ABSOLUTE
    check_pll_lock_func                      0x000283ad   Thumb Code     0  rom_symdef.txt ABSOLUTE
    update_calcap_min_channel                0x00028489   Thumb Code     0  rom_symdef.txt ABSOLUTE
    update_calcap_min_channel_func           0x00028493   Thumb Code     0  rom_symdef.txt ABSOLUTE
    update_calcap_max_channel                0x00028537   Thumb Code     0  rom_symdef.txt ABSOLUTE
    update_calcap_max_channel_func           0x00028541   Thumb Code     0  rom_symdef.txt ABSOLUTE
    write_one_SW_LUT_entry                   0x000285d9   Thumb Code     0  rom_symdef.txt ABSOLUTE
    write_one_SW_LUT_entry_func              0x00028615   Thumb Code     0  rom_symdef.txt ABSOLUTE
    write_HW_LUT                             0x00028631   Thumb Code     0  rom_symdef.txt ABSOLUTE
    write_HW_LUT_func                        0x00028637   Thumb Code     0  rom_symdef.txt ABSOLUTE
    clear_HW_LUT                             0x00028659   Thumb Code     0  rom_symdef.txt ABSOLUTE
    clear_HW_LUT_func                        0x0002865f   Thumb Code     0  rom_symdef.txt ABSOLUTE
    update_LUT                               0x0002866f   Thumb Code     0  rom_symdef.txt ABSOLUTE
    update_LUT_func                          0x00028675   Thumb Code     0  rom_symdef.txt ABSOLUTE
    save_configure_restore                   0x000287f3   Thumb Code     0  rom_symdef.txt ABSOLUTE
    save_configure_restore_func              0x000287f9   Thumb Code     0  rom_symdef.txt ABSOLUTE
    update_calcap_ranges                     0x0002891f   Thumb Code     0  rom_symdef.txt ABSOLUTE
    update_calcap_ranges_func                0x00028925   Thumb Code     0  rom_symdef.txt ABSOLUTE
    find_initial_calcap_ranges               0x00028a57   Thumb Code     0  rom_symdef.txt ABSOLUTE
    find_initial_calcap_ranges_func          0x00028a5d   Thumb Code     0  rom_symdef.txt ABSOLUTE
    pll_vcocal_LUT_InitUpdate                0x00028ccd   Thumb Code     0  rom_symdef.txt ABSOLUTE
    pll_vcocal_LUT_InitUpdate_func           0x00028cd3   Thumb Code     0  rom_symdef.txt ABSOLUTE
    set_rf_cal_cap                           0x00028d03   Thumb Code     0  rom_symdef.txt ABSOLUTE
    set_rf_cal_cap_func                      0x00028d09   Thumb Code     0  rom_symdef.txt ABSOLUTE
    modulationGainCalibration                0x00028d3d   Thumb Code     0  rom_symdef.txt ABSOLUTE
    modulationGainCalibration_func           0x00028d43   Thumb Code     0  rom_symdef.txt ABSOLUTE
    DCoffsetCalibration                      0x00028e21   Thumb Code     0  rom_symdef.txt ABSOLUTE
    DCoffsetCalibration_func                 0x00028e27   Thumb Code     0  rom_symdef.txt ABSOLUTE
    IffCalibration                           0x00028ef3   Thumb Code     0  rom_symdef.txt ABSOLUTE
    IffCalibration_func                      0x00028ef9   Thumb Code     0  rom_symdef.txt ABSOLUTE
    rf_calibration                           0x00028f41   Thumb Code     0  rom_symdef.txt ABSOLUTE
    rf_calibration_func                      0x00028f47   Thumb Code     0  rom_symdef.txt ABSOLUTE
    get_rc16m_count                          0x00028f93   Thumb Code     0  rom_symdef.txt ABSOLUTE
    $Super$$get_rc16m_count_func             0x00028f99   Thumb Code     0  rom_symdef.txt ABSOLUTE
    set_gauss_modgain                        0x00028fcf   Thumb Code     0  rom_symdef.txt ABSOLUTE
    set_gauss_modgain_func                   0x00028fd5   Thumb Code     0  rom_symdef.txt ABSOLUTE
    enable_rf_diag_irq                       0x00029009   Thumb Code     0  rom_symdef.txt ABSOLUTE
    enable_rf_diag_irq_func                  0x0002900f   Thumb Code     0  rom_symdef.txt ABSOLUTE
    gtl_init                                 0x000290b1   Thumb Code     0  rom_symdef.txt ABSOLUTE
    gtl_enter_sleep                          0x000290d9   Thumb Code     0  rom_symdef.txt ABSOLUTE
    gtl_exit_sleep                           0x00029103   Thumb Code     0  rom_symdef.txt ABSOLUTE
    gtl_send_msg                             0x0002910b   Thumb Code     0  rom_symdef.txt ABSOLUTE
    gtl_hci_rx_header                        0x0002915d   Thumb Code     0  rom_symdef.txt ABSOLUTE
    gtl_hci_rx_header_func                   0x00029163   Thumb Code     0  rom_symdef.txt ABSOLUTE
    gtl_hci_rx_payload                       0x000291b1   Thumb Code     0  rom_symdef.txt ABSOLUTE
    gtl_hci_rx_payload_func                  0x000291b7   Thumb Code     0  rom_symdef.txt ABSOLUTE
    gtl_hci_tx_evt                           0x000291b9   Thumb Code     0  rom_symdef.txt ABSOLUTE
    gtl_hci_tx_evt_func                      0x000291bf   Thumb Code     0  rom_symdef.txt ABSOLUTE
    gtl_sleep_to_handler                     0x0002927d   Thumb Code     0  rom_symdef.txt ABSOLUTE
    gtl_polling_to_handler                   0x00029289   Thumb Code     0  rom_symdef.txt ABSOLUTE
    gtl_eif_init                             0x000293f7   Thumb Code     0  rom_symdef.txt ABSOLUTE
    gtl_eif_init_func                        0x000293fd   Thumb Code     0  rom_symdef.txt ABSOLUTE
    gtl_eif_write                            0x00029415   Thumb Code     0  rom_symdef.txt ABSOLUTE
    gtl_eif_start                            0x00029435   Thumb Code     0  rom_symdef.txt ABSOLUTE
    gtl_eif_stop                             0x0002943d   Thumb Code     0  rom_symdef.txt ABSOLUTE
    attc_cleanup                             0x000294f5   Thumb Code     0  rom_symdef.txt ABSOLUTE
    attc_init                                0x0002950d   Thumb Code     0  rom_symdef.txt ABSOLUTE
    attc_create                              0x00029533   Thumb Code     0  rom_symdef.txt ABSOLUTE
    attc_con_enable                          0x00029541   Thumb Code     0  rom_symdef.txt ABSOLUTE
    attm_init                                0x000296d5   Thumb Code     0  rom_symdef.txt ABSOLUTE
    attm_create                              0x000296f9   Thumb Code     0  rom_symdef.txt ABSOLUTE
    attm_con_enable                          0x00029709   Thumb Code     0  rom_symdef.txt ABSOLUTE
    attm_cleanup                             0x00029719   Thumb Code     0  rom_symdef.txt ABSOLUTE
    attm_convert_16to128                     0x00029729   Thumb Code     0  rom_symdef.txt ABSOLUTE
    attm_convert_32to128                     0x00029747   Thumb Code     0  rom_symdef.txt ABSOLUTE
    attm_bt_uuid_match                       0x00029767   Thumb Code     0  rom_symdef.txt ABSOLUTE
    attm_bt32_uuid_match                     0x0002978d   Thumb Code     0  rom_symdef.txt ABSOLUTE
    attm_convert_to128                       0x000297b9   Thumb Code     0  rom_symdef.txt ABSOLUTE
    attm_uuid_match                          0x000297e9   Thumb Code     0  rom_symdef.txt ABSOLUTE
    attm_uuid_match_16                       0x0002981d   Thumb Code     0  rom_symdef.txt ABSOLUTE
    attm_is_bt_uuid128                       0x00029829   Thumb Code     0  rom_symdef.txt ABSOLUTE
    attm_is_bt32_uuid128                     0x00029853   Thumb Code     0  rom_symdef.txt ABSOLUTE
    attmdb_add_service                       0x00029895   Thumb Code     0  rom_symdef.txt ABSOLUTE
    attmdb_get_service                       0x00029957   Thumb Code     0  rom_symdef.txt ABSOLUTE
    attmdb_add_attribute                     0x00029995   Thumb Code     0  rom_symdef.txt ABSOLUTE
    attmdb_destroy                           0x00029a6b   Thumb Code     0  rom_symdef.txt ABSOLUTE
    attmdb_get_attribute                     0x00029a85   Thumb Code     0  rom_symdef.txt ABSOLUTE
    attmdb_get_next_att                      0x00029aa1   Thumb Code     0  rom_symdef.txt ABSOLUTE
    attmdb_att_update_value                  0x00029b2b   Thumb Code     0  rom_symdef.txt ABSOLUTE
    attmdb_att_set_value                     0x00029b6d   Thumb Code     0  rom_symdef.txt ABSOLUTE
    attmdb_att_partial_value_update          0x00029b73   Thumb Code     0  rom_symdef.txt ABSOLUTE
    attmdb_att_get_value                     0x00029ba5   Thumb Code     0  rom_symdef.txt ABSOLUTE
    attmdb_att_get_uuid                      0x00029bc5   Thumb Code     0  rom_symdef.txt ABSOLUTE
    attmdb_att_set_permission                0x00029c29   Thumb Code     0  rom_symdef.txt ABSOLUTE
    attmdb_att_get_permission                0x00029c41   Thumb Code     0  rom_symdef.txt ABSOLUTE
    attmdb_att_update_perm                   0x00029c5b   Thumb Code     0  rom_symdef.txt ABSOLUTE
    attmdb_svc_set_permission                0x00029c7b   Thumb Code     0  rom_symdef.txt ABSOLUTE
    attmdb_svc_get_permission                0x00029c99   Thumb Code     0  rom_symdef.txt ABSOLUTE
    attmdb_init                              0x00029cb3   Thumb Code     0  rom_symdef.txt ABSOLUTE
    attm_svc_create_db                       0x00029f45   Thumb Code     0  rom_symdef.txt ABSOLUTE
    atts_clear_prep_data                     0x0002a03d   Thumb Code     0  rom_symdef.txt ABSOLUTE
    atts_cleanup                             0x0002a05b   Thumb Code     0  rom_symdef.txt ABSOLUTE
    atts_init                                0x0002a08f   Thumb Code     0  rom_symdef.txt ABSOLUTE
    atts_create                              0x0002a0cb   Thumb Code     0  rom_symdef.txt ABSOLUTE
    atts_con_enable                          0x0002a0ed   Thumb Code     0  rom_symdef.txt ABSOLUTE
    atts_update_elmt                         0x0002a0fb   Thumb Code     0  rom_symdef.txt ABSOLUTE
    atts_store_prep_data                     0x0002a149   Thumb Code     0  rom_symdef.txt ABSOLUTE
    atts_send_pdu                            0x0002a575   Thumb Code     0  rom_symdef.txt ABSOLUTE
    atts_allocate_pdu                        0x0002a57f   Thumb Code     0  rom_symdef.txt ABSOLUTE
    atts_mtu_exc_resp                        0x0002a5a1   Thumb Code     0  rom_symdef.txt ABSOLUTE
    atts_send_error                          0x0002a5d7   Thumb Code     0  rom_symdef.txt ABSOLUTE
    atts_find_info_resp                      0x0002a5e3   Thumb Code     0  rom_symdef.txt ABSOLUTE
    atts_get_att_chk_perm                    0x0002a719   Thumb Code     0  rom_symdef.txt ABSOLUTE
    atts_find_by_type_resp                   0x0002a887   Thumb Code     0  rom_symdef.txt ABSOLUTE
    atts_read_by_type_resp                   0x0002a9a7   Thumb Code     0  rom_symdef.txt ABSOLUTE
    atts_read_by_grp_type_resp               0x0002aa93   Thumb Code     0  rom_symdef.txt ABSOLUTE
    atts_read_resp                           0x0002ab95   Thumb Code     0  rom_symdef.txt ABSOLUTE
    atts_read_blob_resp                      0x0002abf9   Thumb Code     0  rom_symdef.txt ABSOLUTE
    atts_read_mult_resp                      0x0002ac69   Thumb Code     0  rom_symdef.txt ABSOLUTE
    atts_write_no_resp                       0x0002ad17   Thumb Code     0  rom_symdef.txt ABSOLUTE
    atts_write_resp                          0x0002ad77   Thumb Code     0  rom_symdef.txt ABSOLUTE
    atts_signed_write_resp                   0x0002adf1   Thumb Code     0  rom_symdef.txt ABSOLUTE
    atts_prepare_write_resp                  0x0002ae85   Thumb Code     0  rom_symdef.txt ABSOLUTE
    atts_execute_write_resp                  0x0002af11   Thumb Code     0  rom_symdef.txt ABSOLUTE
    atts_send_cmd_cmp                        0x0002afd5   Thumb Code     0  rom_symdef.txt ABSOLUTE
    atts_write_rsp_send                      0x0002aff3   Thumb Code     0  rom_symdef.txt ABSOLUTE
    gattc_cleanup                            0x0002b0a3   Thumb Code     0  rom_symdef.txt ABSOLUTE
    gattc_init                               0x0002b0cd   Thumb Code     0  rom_symdef.txt ABSOLUTE
    gattc_create                             0x0002b109   Thumb Code     0  rom_symdef.txt ABSOLUTE
    gattc_send_att_req                       0x0002b13b   Thumb Code     0  rom_symdef.txt ABSOLUTE
    gattc_allocate_att_req                   0x0002b145   Thumb Code     0  rom_symdef.txt ABSOLUTE
    gattc_send_execute                       0x0002b165   Thumb Code     0  rom_symdef.txt ABSOLUTE
    gattc_get_event_dest                     0x0002b179   Thumb Code     0  rom_symdef.txt ABSOLUTE
    gattc_init_operation                     0x0002b1b7   Thumb Code     0  rom_symdef.txt ABSOLUTE
    gattc_get_operation                      0x0002b1d1   Thumb Code     0  rom_symdef.txt ABSOLUTE
    gattc_send_complete_evt                  0x0002b1e5   Thumb Code     0  rom_symdef.txt ABSOLUTE
    gattc_get_mtu                            0x0002b2d3   Thumb Code     0  rom_symdef.txt ABSOLUTE
    gattc_set_mtu                            0x0002b2dd   Thumb Code     0  rom_symdef.txt ABSOLUTE
    gattm_svc_get_start_hdl                  0x0002c2e9   Thumb Code     0  rom_symdef.txt ABSOLUTE
    gattm_init                               0x0002c2ef   Thumb Code     0  rom_symdef.txt ABSOLUTE
    gattm_create                             0x0002c317   Thumb Code     0  rom_symdef.txt ABSOLUTE
    gattm_cleanup                            0x0002c31f   Thumb Code     0  rom_symdef.txt ABSOLUTE
    gattm_get_max_mtu                        0x0002c327   Thumb Code     0  rom_symdef.txt ABSOLUTE
    gattm_set_max_mtu                        0x0002c32d   Thumb Code     0  rom_symdef.txt ABSOLUTE
    l2cc_cleanup                             0x0002c479   Thumb Code     0  rom_symdef.txt ABSOLUTE
    l2cc_init                                0x0002c4a9   Thumb Code     0  rom_symdef.txt ABSOLUTE
    l2cc_create                              0x0002c4e5   Thumb Code     0  rom_symdef.txt ABSOLUTE
    l2cc_update_state                        0x0002c515   Thumb Code     0  rom_symdef.txt ABSOLUTE
    l2cm_init                                0x0002c759   Thumb Code     0  rom_symdef.txt ABSOLUTE
    l2cm_create                              0x0002c781   Thumb Code     0  rom_symdef.txt ABSOLUTE
    l2cm_cleanup                             0x0002c789   Thumb Code     0  rom_symdef.txt ABSOLUTE
    l2cm_set_link_layer_buff_size            0x0002c7a9   Thumb Code     0  rom_symdef.txt ABSOLUTE
    smpc_regs_push                           0x0002c7b9   Thumb Code     0  rom_symdef.txt ABSOLUTE
    smpc_regs_pop                            0x0002c7bb   Thumb Code     0  rom_symdef.txt ABSOLUTE
    smpc_clear_timeout_timer                 0x0002c7bd   Thumb Code     0  rom_symdef.txt ABSOLUTE
    smpc_cleanup                             0x0002c7e1   Thumb Code     0  rom_symdef.txt ABSOLUTE
    smpc_init                                0x0002c841   Thumb Code     0  rom_symdef.txt ABSOLUTE
    smpc_create                              0x0002c87d   Thumb Code     0  rom_symdef.txt ABSOLUTE
    smpc_init_operation                      0x0002c8ab   Thumb Code     0  rom_symdef.txt ABSOLUTE
    smpc_send_cmp_evt                        0x0002c8c1   Thumb Code     0  rom_symdef.txt ABSOLUTE
    smpc_send_use_enc_block_cmd              0x0002c935   Thumb Code     0  rom_symdef.txt ABSOLUTE
    smpc_send_start_enc_cmd                  0x0002c96d   Thumb Code     0  rom_symdef.txt ABSOLUTE
    smpc_send_ltk_req_rsp                    0x0002c9cb   Thumb Code     0  rom_symdef.txt ABSOLUTE
    smpc_send_pairing_ind                    0x0002cadb   Thumb Code     0  rom_symdef.txt ABSOLUTE
    smpc_launch_rep_att_timer                0x0002cb6f   Thumb Code     0  rom_symdef.txt ABSOLUTE
    smpc_check_repeated_attempts             0x0002cbbd   Thumb Code     0  rom_symdef.txt ABSOLUTE
    smpc_check_max_key_size                  0x0002cc01   Thumb Code     0  rom_symdef.txt ABSOLUTE
    smpc_check_key_distrib                   0x0002cc29   Thumb Code     0  rom_symdef.txt ABSOLUTE
    smpc_xor                                 0x0002cc7d   Thumb Code     0  rom_symdef.txt ABSOLUTE
    smpc_generate_l                          0x0002cc93   Thumb Code     0  rom_symdef.txt ABSOLUTE
    smpc_generate_ci                         0x0002ccdf   Thumb Code     0  rom_symdef.txt ABSOLUTE
    smpc_generate_rand                       0x0002cd4b   Thumb Code     0  rom_symdef.txt ABSOLUTE
    smpc_generate_e1                         0x0002cd6f   Thumb Code     0  rom_symdef.txt ABSOLUTE
    smpc_generate_cfm                        0x0002ce25   Thumb Code     0  rom_symdef.txt ABSOLUTE
    smpc_generate_stk                        0x0002cead   Thumb Code     0  rom_symdef.txt ABSOLUTE
    smpc_calc_subkeys                        0x0002cf01   Thumb Code     0  rom_symdef.txt ABSOLUTE
    smpc_pairing_end                         0x0002cf77   Thumb Code     0  rom_symdef.txt ABSOLUTE
    smpc_tkdp_rcp_continue                   0x0002d00b   Thumb Code     0  rom_symdef.txt ABSOLUTE
    smpc_tkdp_rcp_start                      0x0002d069   Thumb Code     0  rom_symdef.txt ABSOLUTE
    smpc_pdu_send                            0x0002d0ab   Thumb Code     0  rom_symdef.txt ABSOLUTE
    smpc_tkdp_send_start                     0x0002d11b   Thumb Code     0  rom_symdef.txt ABSOLUTE
    smpc_tkdp_send_continue                  0x0002d199   Thumb Code     0  rom_symdef.txt ABSOLUTE
    smpc_get_key_sec_prop                    0x0002d215   Thumb Code     0  rom_symdef.txt ABSOLUTE
    smpc_is_sec_mode_reached                 0x0002d28d   Thumb Code     0  rom_symdef.txt ABSOLUTE
    smpc_handle_enc_change_evt               0x0002d2b7   Thumb Code     0  rom_symdef.txt ABSOLUTE
    smpc_pdu_recv                            0x0002d35d   Thumb Code     0  rom_symdef.txt ABSOLUTE
    smpm_init                                0x0002de21   Thumb Code     0  rom_symdef.txt ABSOLUTE
    smpm_create                              0x0002de5b   Thumb Code     0  rom_symdef.txt ABSOLUTE
    smpm_cleanup                             0x0002de63   Thumb Code     0  rom_symdef.txt ABSOLUTE
    smpm_send_cmp_evt                        0x0002de6b   Thumb Code     0  rom_symdef.txt ABSOLUTE
    smpm_send_encrypt_req                    0x0002dea3   Thumb Code     0  rom_symdef.txt ABSOLUTE
    smpm_send_gen_rand_nb_req                0x0002ded1   Thumb Code     0  rom_symdef.txt ABSOLUTE
    smpm_check_addr_type                     0x0002dedf   Thumb Code     0  rom_symdef.txt ABSOLUTE
    gapc_init                                0x0002e269   Thumb Code     0  rom_symdef.txt ABSOLUTE
    gapc_con_create                          0x0002e2a5   Thumb Code     0  rom_symdef.txt ABSOLUTE
    gapc_con_cleanup                         0x0002e385   Thumb Code     0  rom_symdef.txt ABSOLUTE
    gapc_send_disconect_ind                  0x0002e395   Thumb Code     0  rom_symdef.txt ABSOLUTE
    gapc_get_conidx                          0x0002e3b7   Thumb Code     0  rom_symdef.txt ABSOLUTE
    gapc_get_conhdl                          0x0002e3e3   Thumb Code     0  rom_symdef.txt ABSOLUTE
    gapc_get_role                            0x0002e3f9   Thumb Code     0  rom_symdef.txt ABSOLUTE
    gapc_get_bdaddr                          0x0002e415   Thumb Code     0  rom_symdef.txt ABSOLUTE
    gapc_get_csrk                            0x0002e435   Thumb Code     0  rom_symdef.txt ABSOLUTE
    gapc_get_sign_counter                    0x0002e453   Thumb Code     0  rom_symdef.txt ABSOLUTE
    gapc_send_complete_evt                   0x0002e471   Thumb Code     0  rom_symdef.txt ABSOLUTE
    gapc_send_error_evt                      0x0002e4bd   Thumb Code     0  rom_symdef.txt ABSOLUTE
    gapc_is_sec_set                          0x0002e4df   Thumb Code     0  rom_symdef.txt ABSOLUTE
    gapc_get_enc_keysize                     0x0002e549   Thumb Code     0  rom_symdef.txt ABSOLUTE
    gapc_set_enc_keysize                     0x0002e561   Thumb Code     0  rom_symdef.txt ABSOLUTE
    gapc_link_encrypted                      0x0002e575   Thumb Code     0  rom_symdef.txt ABSOLUTE
    gapc_auth_set                            0x0002e58f   Thumb Code     0  rom_symdef.txt ABSOLUTE
    gapc_param_updata_sanity                 0x0002e67b   Thumb Code     0  rom_symdef.txt ABSOLUTE
    gapm_init                                0x0002f4f3   Thumb Code     0  rom_symdef.txt ABSOLUTE
    gapm_host_init                           0x0002f547   Thumb Code     0  rom_symdef.txt ABSOLUTE
    gapm_get_operation                       0x0002f56d   Thumb Code     0  rom_symdef.txt ABSOLUTE
    gapm_send_complete_evt                   0x0002f57f   Thumb Code     0  rom_symdef.txt ABSOLUTE
    gapm_send_error_evt                      0x0002f5b5   Thumb Code     0  rom_symdef.txt ABSOLUTE
    gapm_con_create                          0x0002f5d3   Thumb Code     0  rom_symdef.txt ABSOLUTE
    gapm_con_enable                          0x0002f631   Thumb Code     0  rom_symdef.txt ABSOLUTE
    gapm_con_cleanup                         0x0002f63d   Thumb Code     0  rom_symdef.txt ABSOLUTE
    gapm_get_privacy_flag                    0x00030c7f   Thumb Code     0  rom_symdef.txt ABSOLUTE
    gapm_set_recon_addr                      0x00030cab   Thumb Code     0  rom_symdef.txt ABSOLUTE
    gapm_adv_op_sanity                       0x00030cef   Thumb Code     0  rom_symdef.txt ABSOLUTE
    gapm_set_adv_mode                        0x00030e75   Thumb Code     0  rom_symdef.txt ABSOLUTE
    gapm_execute_adv_op                      0x00030e8d   Thumb Code     0  rom_symdef.txt ABSOLUTE
    gapm_scan_op_sanity                      0x00030fdd   Thumb Code     0  rom_symdef.txt ABSOLUTE
    gapm_set_scan_mode                       0x000310b5   Thumb Code     0  rom_symdef.txt ABSOLUTE
    gapm_execute_scan_op                     0x000310d1   Thumb Code     0  rom_symdef.txt ABSOLUTE
    gapm_connect_op_sanity                   0x00031175   Thumb Code     0  rom_symdef.txt ABSOLUTE
    gapm_execute_connect_op                  0x000312b9   Thumb Code     0  rom_symdef.txt ABSOLUTE
    gapm_get_role                            0x0003142d   Thumb Code     0  rom_symdef.txt ABSOLUTE
    gapm_get_recon_addr                      0x00031433   Thumb Code     0  rom_symdef.txt ABSOLUTE
    gapm_set_privacy_flag                    0x00031473   Thumb Code     0  rom_symdef.txt ABSOLUTE
    gapm_get_ad_type_flag                    0x0003149f   Thumb Code     0  rom_symdef.txt ABSOLUTE
    gapm_add_to_filter                       0x000314c5   Thumb Code     0  rom_symdef.txt ABSOLUTE
    gapm_is_filtered                         0x00031529   Thumb Code     0  rom_symdef.txt ABSOLUTE
    gapm_update_air_op_state                 0x0003157f   Thumb Code     0  rom_symdef.txt ABSOLUTE
    gapm_get_irk                             0x00031635   Thumb Code     0  rom_symdef.txt ABSOLUTE
    gapm_get_bdaddr                          0x0003163b   Thumb Code     0  rom_symdef.txt ABSOLUTE
    l2cc_pdu_pack                            0x0003164d   Thumb Code     0  rom_symdef.txt ABSOLUTE
    l2cc_pdu_unpack                          0x000318f3   Thumb Code     0  rom_symdef.txt ABSOLUTE
    l2cc_detect_dest                         0x00031b2d   Thumb Code     0  rom_symdef.txt ABSOLUTE
    smpc_check_param                         0x00031b95   Thumb Code     0  rom_symdef.txt ABSOLUTE
    ke_init                                  0x0003200d   Thumb Code     0  rom_symdef.txt ABSOLUTE
    ke_flush                                 0x00032039   Thumb Code     0  rom_symdef.txt ABSOLUTE
    ke_sleep_check                           0x00032079   Thumb Code     0  rom_symdef.txt ABSOLUTE
    ke_event_init                            0x00032091   Thumb Code     0  rom_symdef.txt ABSOLUTE
    ke_event_callback_set                    0x0003209d   Thumb Code     0  rom_symdef.txt ABSOLUTE
    ke_event_set                             0x000320b1   Thumb Code     0  rom_symdef.txt ABSOLUTE
    ke_event_clear                           0x000320dd   Thumb Code     0  rom_symdef.txt ABSOLUTE
    ke_event_get                             0x00032109   Thumb Code     0  rom_symdef.txt ABSOLUTE
    ke_event_get_all                         0x0003212f   Thumb Code     0  rom_symdef.txt ABSOLUTE
    ke_event_flush                           0x00032135   Thumb Code     0  rom_symdef.txt ABSOLUTE
    ke_event_schedule                        0x0003213d   Thumb Code     0  rom_symdef.txt ABSOLUTE
    ke_mem_init                              0x0003218d   Thumb Code     0  rom_symdef.txt ABSOLUTE
    ke_mem_is_empty                          0x000321d7   Thumb Code     0  rom_symdef.txt ABSOLUTE
    ke_malloc                                0x00032215   Thumb Code     0  rom_symdef.txt ABSOLUTE
    ke_free                                  0x000322d7   Thumb Code     0  rom_symdef.txt ABSOLUTE
    ke_msg_alloc                             0x000323b1   Thumb Code     0  rom_symdef.txt ABSOLUTE
    ke_msg_send                              0x000323e1   Thumb Code     0  rom_symdef.txt ABSOLUTE
    ke_msg_send_basic                        0x0003240d   Thumb Code     0  rom_symdef.txt ABSOLUTE
    ke_msg_forward                           0x0003241b   Thumb Code     0  rom_symdef.txt ABSOLUTE
    ke_msg_forward_new_id                    0x00032425   Thumb Code     0  rom_symdef.txt ABSOLUTE
    ke_msg_free                              0x00032435   Thumb Code     0  rom_symdef.txt ABSOLUTE
    ke_queue_extract                         0x00032441   Thumb Code     0  rom_symdef.txt ABSOLUTE
    ke_queue_insert                          0x0003247f   Thumb Code     0  rom_symdef.txt ABSOLUTE
    ke_task_init                             0x0003256d   Thumb Code     0  rom_symdef.txt ABSOLUTE
    ke_task_create                           0x00032587   Thumb Code     0  rom_symdef.txt ABSOLUTE
    ke_task_delete                           0x000325e1   Thumb Code     0  rom_symdef.txt ABSOLUTE
    ke_state_set                             0x00032631   Thumb Code     0  rom_symdef.txt ABSOLUTE
    ke_state_get                             0x000326b3   Thumb Code     0  rom_symdef.txt ABSOLUTE
    ke_msg_discard                           0x000326e3   Thumb Code     0  rom_symdef.txt ABSOLUTE
    ke_msg_save                              0x000326e7   Thumb Code     0  rom_symdef.txt ABSOLUTE
    ke_task_handler_get                      0x000326eb   Thumb Code     0  rom_symdef.txt ABSOLUTE
    ke_timer_init                            0x00032813   Thumb Code     0  rom_symdef.txt ABSOLUTE
    ke_timer_init_func                       0x00032819   Thumb Code     0  rom_symdef.txt ABSOLUTE
    ke_timer_set                             0x00032825   Thumb Code     0  rom_symdef.txt ABSOLUTE
    ke_timer_clear                           0x000328a5   Thumb Code     0  rom_symdef.txt ABSOLUTE
    ke_timer_active                          0x000328fb   Thumb Code     0  rom_symdef.txt ABSOLUTE
    ke_timer_sleep_check                     0x00032921   Thumb Code     0  rom_symdef.txt ABSOLUTE
    ke_time                                  0x0003297d   Thumb Code     0  rom_symdef.txt ABSOLUTE
    nvds_get                                 0x000329d1   Thumb Code     0  rom_symdef.txt ABSOLUTE
    nvds_get_func                            0x000329d7   Thumb Code     0  rom_symdef.txt ABSOLUTE
    nvds_init                                0x00032bcf   Thumb Code     0  rom_symdef.txt ABSOLUTE
    rwble_hl_init                            0x00032be5   Thumb Code     0  rom_symdef.txt ABSOLUTE
    rwble_hl_send_message                    0x00032c0b   Thumb Code     0  rom_symdef.txt ABSOLUTE
    ble_regs_push                            0x00032c0d   Thumb Code     0  rom_symdef.txt ABSOLUTE
    ble_regs_pop                             0x00032c65   Thumb Code     0  rom_symdef.txt ABSOLUTE
    rf_init                                  0x00032cbd   Thumb Code     0  rom_symdef.txt ABSOLUTE
    rf_reinit                                0x00032cc3   Thumb Code     0  rom_symdef.txt ABSOLUTE
    rwip_init                                0x00032ccb   Thumb Code     0  rom_symdef.txt ABSOLUTE
    rwip_reset                               0x00032d8d   Thumb Code     0  rom_symdef.txt ABSOLUTE
    rwip_version                             0x00032db9   Thumb Code     0  rom_symdef.txt ABSOLUTE
    rwip_prevent_sleep_get                   0x00032dc1   Thumb Code     0  rom_symdef.txt ABSOLUTE
    rwip_schedule                            0x00032dc9   Thumb Code     0  rom_symdef.txt ABSOLUTE
    rwip_prevent_sleep_set                   0x00032eb7   Thumb Code     0  rom_symdef.txt ABSOLUTE
    rwip_wakeup                              0x00032edb   Thumb Code     0  rom_symdef.txt ABSOLUTE
    rwip_prevent_sleep_clear                 0x00032eed   Thumb Code     0  rom_symdef.txt ABSOLUTE
    rwip_wakeup_end                          0x00032f11   Thumb Code     0  rom_symdef.txt ABSOLUTE
    rwip_wakeup_delay_set                    0x00032f2f   Thumb Code     0  rom_symdef.txt ABSOLUTE
    rwip_sleep_enable                        0x00032f3f   Thumb Code     0  rom_symdef.txt ABSOLUTE
    rwip_ext_wakeup_enable                   0x00032f47   Thumb Code     0  rom_symdef.txt ABSOLUTE
    rwble_init                               0x00032f71   Thumb Code     0  rom_symdef.txt ABSOLUTE
    rwble_reset                              0x00032fd5   Thumb Code     0  rom_symdef.txt ABSOLUTE
    rwble_version                            0x00033003   Thumb Code     0  rom_symdef.txt ABSOLUTE
    rwble_get_clock                          0x0003302d   Thumb Code     0  rom_symdef.txt ABSOLUTE
    BLE_FINETGTIM_Handler                    0x00033105   Thumb Code     0  rom_symdef.txt ABSOLUTE
    BLE_GROSSTGTIM_Handler                   0x0003310d   Thumb Code     0  rom_symdef.txt ABSOLUTE
    $Super$$BLE_CSCNT_Handler                0x00033115   Thumb Code     0  rom_symdef.txt ABSOLUTE
    BLE_ERROR_Handler                        0x0003318d   Thumb Code     0  rom_symdef.txt ABSOLUTE
    BLE_CRYPT_Handler                        0x000331ad   Thumb Code     0  rom_symdef.txt ABSOLUTE
    func_check_mem                           0x000331eb   Thumb Code     0  rom_symdef.txt ABSOLUTE
    test_rxdone                              0x0003323d   Thumb Code     0  rom_symdef.txt ABSOLUTE
    prf_create                               0x000339fd   Thumb Code     0  rom_symdef.txt ABSOLUTE
    prf_init                                 0x00033a23   Thumb Code     0  rom_symdef.txt ABSOLUTE
    prf_cleanup                              0x00033a2b   Thumb Code     0  rom_symdef.txt ABSOLUTE
    __aeabi_uidiv                            0x00033aa7   Thumb Code     0  rom_symdef.txt ABSOLUTE
    __aeabi_uidivmod                         0x00033aa7   Thumb Code     0  rom_symdef.txt ABSOLUTE
    __aeabi_idiv                             0x00033ad3   Thumb Code     0  rom_symdef.txt ABSOLUTE
    __aeabi_idivmod                          0x00033ad3   Thumb Code     0  rom_symdef.txt ABSOLUTE
    rand                                     0x00033afd   Thumb Code     0  rom_symdef.txt ABSOLUTE
    srand                                    0x00033b0f   Thumb Code     0  rom_symdef.txt ABSOLUTE
    __aeabi_memcpy                           0x00033b21   Thumb Code     0  rom_symdef.txt ABSOLUTE
    __aeabi_memcpy4                          0x00033b21   Thumb Code     0  rom_symdef.txt ABSOLUTE
    __aeabi_memcpy8                          0x00033b21   Thumb Code     0  rom_symdef.txt ABSOLUTE
    __aeabi_memset                           0x00033b45   Thumb Code     0  rom_symdef.txt ABSOLUTE
    __aeabi_memset4                          0x00033b45   Thumb Code     0  rom_symdef.txt ABSOLUTE
    __aeabi_memset8                          0x00033b45   Thumb Code     0  rom_symdef.txt ABSOLUTE
    __aeabi_memclr                           0x00033b53   Thumb Code     0  rom_symdef.txt ABSOLUTE
    __aeabi_memclr4                          0x00033b53   Thumb Code     0  rom_symdef.txt ABSOLUTE
    __aeabi_memclr8                          0x00033b53   Thumb Code     0  rom_symdef.txt ABSOLUTE
    _memset$wrapper                          0x00033b57   Thumb Code     0  rom_symdef.txt ABSOLUTE
    strlen                                   0x00033b69   Thumb Code     0  rom_symdef.txt ABSOLUTE
    memcmp                                   0x00033b77   Thumb Code     0  rom_symdef.txt ABSOLUTE
    __aeabi_dmul                             0x00033b91   Thumb Code     0  rom_symdef.txt ABSOLUTE
    __aeabi_i2d                              0x00033c61   Thumb Code     0  rom_symdef.txt ABSOLUTE
    __aeabi_ui2d                             0x00033c89   Thumb Code     0  rom_symdef.txt ABSOLUTE
    __aeabi_cdcmpeq                          0x00033ca5   Thumb Code     0  rom_symdef.txt ABSOLUTE
    __aeabi_cdcmple                          0x00033ca5   Thumb Code     0  rom_symdef.txt ABSOLUTE
    __I$use$fp                               0x00033ccd   Thumb Code     0  rom_symdef.txt ABSOLUTE
    _double_round                            0x00033ccd   Thumb Code     0  rom_symdef.txt ABSOLUTE
    _double_epilogue                         0x00033ce7   Thumb Code     0  rom_symdef.txt ABSOLUTE
    __aeabi_llsl                             0x00033d8d   Thumb Code     0  rom_symdef.txt ABSOLUTE
    _ll_shift_l                              0x00033d8d   Thumb Code     0  rom_symdef.txt ABSOLUTE
    __aeabi_llsr                             0x00033dad   Thumb Code     0  rom_symdef.txt ABSOLUTE
    _ll_ushift_r                             0x00033dad   Thumb Code     0  rom_symdef.txt ABSOLUTE
    __ARM_clz                                0x00033dcf   Thumb Code     0  rom_symdef.txt ABSOLUTE
    __ARM_common_switch8                     0x00033dfd   Thumb Code     0  rom_symdef.txt ABSOLUTE
    uart_api                                 0x00033e18   Data           0  rom_symdef.txt ABSOLUTE
    co_sca2ppm                               0x00033e28   Data           0  rom_symdef.txt ABSOLUTE
    co_null_bdaddr                           0x00033e38   Data           0  rom_symdef.txt ABSOLUTE
    co_default_bdaddr                        0x00033e3e   Data           0  rom_symdef.txt ABSOLUTE
    dbg_default_handler                      0x00033f14   Data           0  rom_symdef.txt ABSOLUTE
    llc_state_handler                        0x000340dc   Data           0  rom_symdef.txt ABSOLUTE
    llc_default_handler                      0x0003418c   Data           0  rom_symdef.txt ABSOLUTE
    llm_local_cmds                           0x000341bc   Data           0  rom_symdef.txt ABSOLUTE
    llm_local_le_feats                       0x000341fc   Data           0  rom_symdef.txt ABSOLUTE
    llm_local_le_states                      0x00034204   Data           0  rom_symdef.txt ABSOLUTE
    llm_state_handler                        0x00034354   Data           0  rom_symdef.txt ABSOLUTE
    llm_default_handler                      0x00034384   Data           0  rom_symdef.txt ABSOLUTE
    LLM_AA_CT1                               0x0003438c   Data           0  rom_symdef.txt ABSOLUTE
    LLM_AA_CT2                               0x0003438f   Data           0  rom_symdef.txt ABSOLUTE
    gtl_default_state                        0x000343a4   Data           0  rom_symdef.txt ABSOLUTE
    gtl_default_handler                      0x000343bc   Data           0  rom_symdef.txt ABSOLUTE
    attc_default_state                       0x000343d8   Data           0  rom_symdef.txt ABSOLUTE
    attc_state_handler                       0x000343f8   Data           0  rom_symdef.txt ABSOLUTE
    attc_default_handler                     0x00034410   Data           0  rom_symdef.txt ABSOLUTE
    attm_default_state                       0x00034428   Data           0  rom_symdef.txt ABSOLUTE
    attm_state_handler                       0x00034480   Data           0  rom_symdef.txt ABSOLUTE
    attm_default_handler                     0x00034488   Data           0  rom_symdef.txt ABSOLUTE
    atts_default_state                       0x000344a0   Data           0  rom_symdef.txt ABSOLUTE
    atts_state_handler                       0x000344d0   Data           0  rom_symdef.txt ABSOLUTE
    atts_default_handler                     0x000344f8   Data           0  rom_symdef.txt ABSOLUTE
    gattc_default_state                      0x00034510   Data           0  rom_symdef.txt ABSOLUTE
    gattc_state_handler                      0x00034598   Data           0  rom_symdef.txt ABSOLUTE
    gattc_default_handler                    0x000345b0   Data           0  rom_symdef.txt ABSOLUTE
    gattm_default_state                      0x00034604   Data           0  rom_symdef.txt ABSOLUTE
    gattm_state_handler                      0x00034614   Data           0  rom_symdef.txt ABSOLUTE
    gattm_default_handler                    0x00034624   Data           0  rom_symdef.txt ABSOLUTE
    l2cc_default_state                       0x0003463c   Data           0  rom_symdef.txt ABSOLUTE
    l2cc_state_handler                       0x00034654   Data           0  rom_symdef.txt ABSOLUTE
    l2cc_default_handler                     0x0003466c   Data           0  rom_symdef.txt ABSOLUTE
    l2cm_default_state                       0x00034684   Data           0  rom_symdef.txt ABSOLUTE
    l2cm_state_handler                       0x0003468c   Data           0  rom_symdef.txt ABSOLUTE
    l2cm_default_handler                     0x00034694   Data           0  rom_symdef.txt ABSOLUTE
    smpc_default_state                       0x000346c8   Data           0  rom_symdef.txt ABSOLUTE
    smpc_state_handler                       0x00034760   Data           0  rom_symdef.txt ABSOLUTE
    smpc_default_handler                     0x00034780   Data           0  rom_symdef.txt ABSOLUTE
    smpm_default_state                       0x00034798   Data           0  rom_symdef.txt ABSOLUTE
    smpm_state_handler                       0x000347d0   Data           0  rom_symdef.txt ABSOLUTE
    smpm_default_handler                     0x000347e0   Data           0  rom_symdef.txt ABSOLUTE
    gapc_default_state                       0x000347f8   Data           0  rom_symdef.txt ABSOLUTE
    gapc_state_handler                       0x00034910   Data           0  rom_symdef.txt ABSOLUTE
    gapc_default_handler                     0x00034928   Data           0  rom_symdef.txt ABSOLUTE
    gapm_default_state                       0x000349ec   Data           0  rom_symdef.txt ABSOLUTE
    gapm_state_handler                       0x00034b94   Data           0  rom_symdef.txt ABSOLUTE
    gapm_default_handler                     0x00034bbc   Data           0  rom_symdef.txt ABSOLUTE
    smpc_construct_pdu                       0x00034ce8   Data           0  rom_symdef.txt ABSOLUTE
    smpc_recv_pdu                            0x00034d18   Data           0  rom_symdef.txt ABSOLUTE
    dummy                                    0x00080000   Data           0  rom_symdef.txt ABSOLUTE
    sleep_env                                0x00080254   Data           0  rom_symdef.txt ABSOLUTE
    iq_trim_bias_ctrl1_reg                   0x00080256   Data           0  rom_symdef.txt ABSOLUTE
    co_buf_env                               0x00080258   Data           0  rom_symdef.txt ABSOLUTE
    dbg_state                                0x00080348   Data           0  rom_symdef.txt ABSOLUTE
    iq_trim_rf_mixer_ctrl1_reg               0x0008034a   Data           0  rom_symdef.txt ABSOLUTE
    llc_env                                  0x0008034c   Data           0  rom_symdef.txt ABSOLUTE
    llc_state                                0x00080364   Data           0  rom_symdef.txt ABSOLUTE
    ret_winsize_var                          0x0008036a   Data           0  rom_symdef.txt ABSOLUTE
    lld_evt_env                              0x0008036c   Data           0  rom_symdef.txt ABSOLUTE
    lld_sleep_env                            0x0008038c   Data           0  rom_symdef.txt ABSOLUTE
    llm_le_env                               0x00080390   Data           0  rom_symdef.txt ABSOLUTE
    llm_le_env_lpus                          0x000803e4   Data           0  rom_symdef.txt ABSOLUTE
    llm_bt_env                               0x0008042a   Data           0  rom_symdef.txt ABSOLUTE
    llm_state                                0x00080432   Data           0  rom_symdef.txt ABSOLUTE
    uart_env                                 0x00080434   Data           0  rom_symdef.txt ABSOLUTE
    vcocal_ctrl_reg_val                      0x00080452   Data           0  rom_symdef.txt ABSOLUTE
    last_temp_count                          0x00080478   Data           0  rom_symdef.txt ABSOLUTE
    last_temp_time                           0x0008047c   Data           0  rom_symdef.txt ABSOLUTE
    gtl_env                                  0x00080480   Data           0  rom_symdef.txt ABSOLUTE
    gtl_state                                0x000804a4   Data           0  rom_symdef.txt ABSOLUTE
    attc_state                               0x000804a5   Data           0  rom_symdef.txt ABSOLUTE
    attm_env                                 0x000804ac   Data           0  rom_symdef.txt ABSOLUTE
    attm_state                               0x000804b4   Data           0  rom_symdef.txt ABSOLUTE
    atts_env                                 0x000804b8   Data           0  rom_symdef.txt ABSOLUTE
    atts_state                               0x000804d0   Data           0  rom_symdef.txt ABSOLUTE
    gattc_env                                0x000804d8   Data           0  rom_symdef.txt ABSOLUTE
    gattc_state                              0x000804f0   Data           0  rom_symdef.txt ABSOLUTE
    gattm_env                                0x000804f6   Data           0  rom_symdef.txt ABSOLUTE
    gattm_state                              0x000804fc   Data           0  rom_symdef.txt ABSOLUTE
    l2cc_env                                 0x00080500   Data           0  rom_symdef.txt ABSOLUTE
    l2cc_state                               0x00080518   Data           0  rom_symdef.txt ABSOLUTE
    l2cm_env                                 0x0008051e   Data           0  rom_symdef.txt ABSOLUTE
    l2cm_state                               0x00080524   Data           0  rom_symdef.txt ABSOLUTE
    smpc_env                                 0x00080528   Data           0  rom_symdef.txt ABSOLUTE
    smpc_state                               0x00080540   Data           0  rom_symdef.txt ABSOLUTE
    smpm_env                                 0x00080548   Data           0  rom_symdef.txt ABSOLUTE
    smpm_state                               0x00080550   Data           0  rom_symdef.txt ABSOLUTE
    gapc_env                                 0x00080554   Data           0  rom_symdef.txt ABSOLUTE
    gapc_state                               0x0008056c   Data           0  rom_symdef.txt ABSOLUTE
    gap_cfg_table                            0x00080574   Data           0  rom_symdef.txt ABSOLUTE
    gapm_env                                 0x00080578   Data           0  rom_symdef.txt ABSOLUTE
    gapm_state                               0x000805a4   Data           0  rom_symdef.txt ABSOLUTE
    ke_env                                   0x000805a8   Data           0  rom_symdef.txt ABSOLUTE
    ke_task_env                              0x00080604   Data           0  rom_symdef.txt ABSOLUTE
    nvds_data_ptr                            0x000806c0   Data           0  rom_symdef.txt ABSOLUTE
    func_check_mem_flag                      0x000806c4   Data           0  rom_symdef.txt ABSOLUTE
    ke_mem_heaps_used                        0x000806c5   Data           0  rom_symdef.txt ABSOLUTE
    rwip_env                                 0x000806c6   Data           0  rom_symdef.txt ABSOLUTE
    ble_reg_save                             0x000806cc   Data           0  rom_symdef.txt ABSOLUTE
    rwip_rf                                  0x0008071c   Data           0  rom_symdef.txt ABSOLUTE
    rwip_heap_db_ret                         0x00080768   Data        1036  jump_table.o(heap_db_area)
    rwip_heap_env_ret                        0x00080b74   Data         340  jump_table.o(heap_env_area)
    rwip_heap_msg_ret                        0x00080cc8   Data        1324  jump_table.o(heap_msg_area)
    descript                                 0x00082a20   Data        1502  arch_main.o(BLE_exchange_memory)
    __Vectors                                0x20000000   Data           4  boot_vectors.o(RESET)
    __Vectors_End                            0x200000a0   Data           0  boot_vectors.o(RESET)
    jump_table_base                          0x20000160   Data         352  jump_table.o(jump_table_mem_area)
    gap_timeout_table                        0x200002c0   Data         100  gapm.o(timeout_table_area)
    nvds_data_storage                        0x20000340   Data         164  nvds.o(nvds_data_storage_area)
    __main                                   0x20000441   Thumb Code     0  entry.o(.ARM.Collect$$$$00000000)
    _main_stk                                0x20000441   Thumb Code     0  entry2.o(.ARM.Collect$$$$00000001)
    _main_scatterload                        0x20000445   Thumb Code     0  entry5.o(.ARM.Collect$$$$00000004)
    __main_after_scatterload                 0x20000449   Thumb Code     0  entry5.o(.ARM.Collect$$$$00000004)
    _main_clock                              0x20000449   Thumb Code     0  entry7b.o(.ARM.Collect$$$$00000008)
    _main_cpp_init                           0x20000449   Thumb Code     0  entry8b.o(.ARM.Collect$$$$0000000A)
    _main_init                               0x20000449   Thumb Code     0  entry9a.o(.ARM.Collect$$$$0000000B)
    __rt_final_cpp                           0x20000451   Thumb Code     0  entry10a.o(.ARM.Collect$$$$0000000D)
    __rt_final_exit                          0x20000451   Thumb Code     0  entry11a.o(.ARM.Collect$$$$0000000F)
    SystemInit                               0x20000455   Thumb Code    70  system_armcm0.o(.text)
    Reset_Handler                            0x200004a9   Thumb Code     8  boot_vectors.o(.text)
    PendSV_Handler                           0x200004f9   Thumb Code     2  boot_vectors.o(.text)
    SysTick_Handler                          0x200004fb   Thumb Code     2  boot_vectors.o(.text)
    KEYBRD_Handler                           0x200004fd   Thumb Code     0  boot_vectors.o(.text)
    UART2_Handler                            0x200004fd   Thumb Code     0  boot_vectors.o(.text)
    WKUP_QUADEC_Handler                      0x200004fd   Thumb Code     0  boot_vectors.o(.text)
    HardFault_HandlerC                       0x20000515   Thumb Code    84  hardfault_handler.o(.text)
    SVC_Handler_c                            0x20000587   Thumb Code    22  arch_main.o(.text)
    patch_func                               0x2000059d   Thumb Code    98  arch_main.o(.text)
    lld_sleep_init_func                      0x200005ff   Thumb Code    26  arch_main.o(.text)
    KeyScan                                  0x20000619   Thumb Code    88  arch_main.o(.text)
    KeyDispose                               0x20000671   Thumb Code   402  arch_main.o(.text)
    BCC_verify                               0x20000803   Thumb Code    32  arch_main.o(.text)
    main_func                                0x20000823   Thumb Code  3150  arch_main.o(.text)
    dummyf                                   0x200014d1   Thumb Code     2  jump_table.o(.text)
    app_disable_sleep                        0x200014d5   Thumb Code    26  arch_sleep.o(.text)
    app_set_extended_sleep                   0x200014ef   Thumb Code    26  arch_sleep.o(.text)
    app_set_deep_sleep                       0x20001509   Thumb Code    28  arch_sleep.o(.text)
    app_restore_sleep_mode                   0x20001525   Thumb Code    68  arch_sleep.o(.text)
    app_force_active_mode                    0x20001569   Thumb Code    30  arch_sleep.o(.text)
    app_ble_ext_wakeup_on                    0x20001587   Thumb Code     8  arch_sleep.o(.text)
    app_ble_ext_wakeup_off                   0x2000158f   Thumb Code     8  arch_sleep.o(.text)
    app_ble_ext_wakeup_get                   0x20001597   Thumb Code     6  arch_sleep.o(.text)
    app_ble_force_wakeup                     0x2000159d   Thumb Code    46  arch_sleep.o(.text)
    app_last_rwble_evt_get                   0x200015cb   Thumb Code     6  arch_sleep.o(.text)
    NMI_HandlerC                             0x200015e5   Thumb Code   124  nmi_handler.o(.text)
    timer_init                               0x20001671   Thumb Code    66  periph_setup.o(.text)
    timer_callback                           0x200016b3   Thumb Code     2  periph_setup.o(.text)
    delay_us                                 0x200016b5   Thumb Code    18  periph_setup.o(.text)
    delay_ms                                 0x200016c7   Thumb Code    28  periph_setup.o(.text)
    GPIO_reservations                        0x200016e3   Thumb Code   686  periph_setup.o(.text)
    set_pad_functions                        0x20001991   Thumb Code   328  periph_setup.o(.text)
    gpio0_int_callback                       0x20001ad9   Thumb Code    60  periph_setup.o(.text)
    gpio1_int_callback                       0x20001b15   Thumb Code     2  periph_setup.o(.text)
    periph_init                              0x20001b17   Thumb Code   154  periph_setup.o(.text)
    SetBeep                                  0x20001bb1   Thumb Code    40  periph_setup.o(.text)
    fliter                                   0x20001bd9   Thumb Code    28  periph_setup.o(.text)
    beep                                     0x20001bf5   Thumb Code    68  periph_setup.o(.text)
    ZigBee_Sleep                             0x20001c39   Thumb Code    26  periph_setup.o(.text)
    ZigBee_Wake                              0x20001c53   Thumb Code    26  periph_setup.o(.text)
    ZigBee_Setting                           0x20001c6d   Thumb Code   118  periph_setup.o(.text)
    select_lp_clk                            0x20001d09   Thumb Code     8  arch_system.o(.text)
    init_pwr_and_clk_ble                     0x20001d11   Thumb Code   196  arch_system.o(.text)
    set_pxact_gpio                           0x20001dd5   Thumb Code    24  arch_system.o(.text)
    calibrate_rcx20                          0x20001ded   Thumb Code    28  arch_system.o(.text)
    read_rcx_freq                            0x20001e09   Thumb Code   104  arch_system.o(.text)
    set_sleep_delay                          0x20001e71   Thumb Code    40  arch_system.o(.text)
    get_rc16m_count_func                     0x20001e99   Thumb Code    28  arch_system.o(.text)
    conditionally_run_radio_cals             0x20001eb5   Thumb Code    82  arch_system.o(.text)
    lld_sleep_us_2_lpcycles_rcx_func         0x20001f07   Thumb Code    18  arch_system.o(.text)
    lld_sleep_lpcycles_2_us_rcx_func         0x20001f19   Thumb Code    14  arch_system.o(.text)
    lld_sleep_us_2_lpcycles_sel_func         0x20001f27   Thumb Code    24  arch_system.o(.text)
    lld_sleep_lpcycles_2_us_sel_func         0x20001f3f   Thumb Code    24  arch_system.o(.text)
    uart_flow_off_func                       0x20001f57   Thumb Code    58  arch_system.o(.text)
    calculate_arch_adv_time                  0x20001f91   Thumb Code    12  arch_system.o(.text)
    iq_trim_from_otp                         0x20001fdd   Thumb Code    54  rf_580.o(.text)
    rf_reg_rd                                0x20002013   Thumb Code     4  rf_580.o(.text)
    rf_reg_wr                                0x20002017   Thumb Code     2  rf_580.o(.text)
    rf_reset                                 0x20002019   Thumb Code     2  rf_580.o(.text)
    rf_force_agc_enable                      0x2000201b   Thumb Code     2  rf_580.o(.text)
    rf_txpwr_dbm_get                         0x2000201d   Thumb Code     4  rf_580.o(.text)
    rf_regs                                  0x20002031   Thumb Code   214  rf_580.o(.text)
    rf_init_func                             0x2000210b   Thumb Code   138  rf_580.o(.text)
    rf_reinit_func                           0x20002195   Thumb Code   128  rf_580.o(.text)
    GPIOn_Handler                            0x200022c5   Thumb Code    40  gpio.o(.text)
    GPIO0_Handler                            0x200022ed   Thumb Code     4  gpio.o(.text)
    GPIO1_Handler                            0x200022f1   Thumb Code    28  gpio.o(.text)
    GPIO2_Handler                            0x2000230d   Thumb Code     4  gpio.o(.text)
    GPIO3_Handler                            0x20002311   Thumb Code     4  gpio.o(.text)
    GPIO4_Handler                            0x20002315   Thumb Code     4  gpio.o(.text)
    uart_init                                0x20002325   Thumb Code    66  uart.o(.text)
    uart_receive_byte                        0x20002367   Thumb Code    14  uart.o(.text)
    uart_send_byte                           0x20002375   Thumb Code    12  uart.o(.text)
    printf_string                            0x20002381   Thumb Code    20  uart.o(.text)
    printf_byte                              0x20002395   Thumb Code    46  uart.o(.text)
    print_hword                              0x200023c3   Thumb Code    18  uart.o(.text)
    print_word                               0x200023d5   Thumb Code    34  uart.o(.text)
    UART_Handler                             0x200023f7   Thumb Code    60  uart.o(.text)
    timer0_init                              0x20002445   Thumb Code    62  pwm.o(.text)
    timer0_set                               0x20002483   Thumb Code    10  pwm.o(.text)
    timer0_enable_irq                        0x2000248d   Thumb Code    10  pwm.o(.text)
    timer0_disable_irq                       0x20002497   Thumb Code    12  pwm.o(.text)
    SWTIM_Handler                            0x200024a3   Thumb Code   166  pwm.o(.text)
    timer2_init                              0x20002549   Thumb Code    32  pwm.o(.text)
    adc_init                                 0x20002585   Thumb Code    28  adc.o(.text)
    adc_enable_channel                       0x200025a1   Thumb Code    20  adc.o(.text)
    adc_disable                              0x200025b5   Thumb Code     8  adc.o(.text)
    adc_get_sample                           0x200025bd   Thumb Code    30  adc.o(.text)
    adc_usDelay                              0x200025db   Thumb Code    30  adc.o(.text)
    adc_get_vbat_sample                      0x200025f9   Thumb Code    88  adc.o(.text)
    adc_calibrate                            0x20002651   Thumb Code    76  adc.o(.text)
    spi_cs_low                               0x200026ad   Thumb Code    14  spi.o(.text)
    spi_cs_high                              0x200026bb   Thumb Code    14  spi.o(.text)
    spi_init                                 0x200026c9   Thumb Code   138  spi.o(.text)
    spi_set_bitmode                          0x20002753   Thumb Code    34  spi.o(.text)
    spi_release                              0x20002775   Thumb Code    38  spi.o(.text)
    spi_disable                              0x2000279b   Thumb Code    12  spi.o(.text)
    spi_access                               0x200027a7   Thumb Code    46  spi.o(.text)
    spi_transaction                          0x200027d5   Thumb Code    24  spi.o(.text)
    spi_flash_init                           0x200027f5   Thumb Code     8  spi_flash.o(.text)
    spi_flash_read_status_reg                0x200027fd   Thumb Code    20  spi_flash.o(.text)
    spi_flash_wait_till_ready                0x20002811   Thumb Code    26  spi_flash.o(.text)
    spi_read_flash_jedec_id                  0x2000282b   Thumb Code    60  spi_flash.o(.text)
    spi_flash_auto_detect                    0x20002867   Thumb Code    76  spi_flash.o(.text)
    spi_flash_set_write_enable               0x200028b3   Thumb Code    60  spi_flash.o(.text)
    spi_flash_write_enable_volatile          0x200028ef   Thumb Code    60  spi_flash.o(.text)
    spi_flash_set_write_disable              0x2000292b   Thumb Code    52  spi_flash.o(.text)
    spi_flash_write_status_reg               0x2000295f   Thumb Code    32  spi_flash.o(.text)
    spi_flash_read_data                      0x2000297f   Thumb Code    86  spi_flash.o(.text)
    spi_flash_page_program                   0x200029d5   Thumb Code    90  spi_flash.o(.text)
    spi_flash_block_erase                    0x20002a2f   Thumb Code    40  spi_flash.o(.text)
    spi_flash_chip_erase                     0x20002a57   Thumb Code    36  spi_flash.o(.text)
    TO_BE_IMPLEMENTED_spi_flash_check_erase  0x20002a7b   Thumb Code     6  spi_flash.o(.text)
    spi_read_flash_memory_man_and_dev_id     0x20002a81   Thumb Code    50  spi_flash.o(.text)
    spi_read_flash_unique_id                 0x20002ab3   Thumb Code    72  spi_flash.o(.text)
    spi_flash_write_data                     0x20002afb   Thumb Code   110  spi_flash.o(.text)
    spi_flash_power_down                     0x20002b69   Thumb Code    24  spi_flash.o(.text)
    spi_flash_release_from_power_down        0x20002b81   Thumb Code    18  spi_flash.o(.text)
    spi_flash_configure_memory_protection    0x20002b93   Thumb Code    52  spi_flash.o(.text)
    spi_flash_chip_erase_forced              0x20002bc7   Thumb Code    40  spi_flash.o(.text)
    spi_flash_page_fill                      0x20002bef   Thumb Code    88  spi_flash.o(.text)
    spi_flash_fill                           0x20002c47   Thumb Code   106  spi_flash.o(.text)
    ke_task_init_func                        0x20002d47   Thumb Code    20  ke_task.obj(.text)
    my_llc_con_update_req_ind                0x20002d6d   Thumb Code   100  ch_map.obj(.text)
    my_llc_ch_map_req_ind                    0x20002dd1   Thumb Code    84  ch_map.obj(.text)
    l2cc_pdu_recv_ind_handler                0x20002e31   Thumb Code   232  atts_task.obj(.text)
    smpc_send_pairing_req_ind                0x20002f1d   Thumb Code   190  smpc.obj(.text)
    smpc_check_pairing_feat                  0x20002fdb   Thumb Code    38  smpc.obj(.text)
    smpc_pairing_cfm_handler                 0x20003009   Thumb Code   518  smpc_task.obj(.text)
    patched_gapm_adv_op_sanity               0x20003215   Thumb Code   208  gapm_util.obj(.text)
    custom_nvds_get_func                     0x20003395   Thumb Code   552  nvds.o(.text)
    nvds_read_bdaddr_from_otp                0x200035bd   Thumb Code    50  nvds.o(.text)
    rwip_sleep                               0x2000360d   Thumb Code   346  rwip.o(.text)
    lld_sleep_compensate_func_patched        0x20003795   Thumb Code    46  rwble.o(.text)
    BLE_WAKEUP_LP_Handler                    0x200037c3   Thumb Code   134  rwble.o(.text)
    BLE_CSCNT_Handler                        0x20003849   Thumb Code    12  rwble.o(.text)
    BLE_SLP_Handler                          0x20003855   Thumb Code    86  rwble.o(.text)
    BLE_RX_Handler                           0x200038ab   Thumb Code     8  rwble.o(.text)
    BLE_EVENT_Handler                        0x200038b3   Thumb Code    24  rwble.o(.text)
    BLE_RF_DIAG_Handler                      0x200038cb   Thumb Code    84  rwble.o(.text)
    prf_server_error_ind_send                0x20003949   Thumb Code    44  prf_utils.o(.text)
    prf_server_send_event                    0x20003975   Thumb Code    42  prf_utils.o(.text)
    prf_pack_date_time                       0x2000399f   Thumb Code    32  prf_utils.o(.text)
    prf_unpack_date_time                     0x200039bf   Thumb Code    34  prf_utils.o(.text)
    prf_init_func                            0x200039e1   Thumb Code    16  prf_utils.o(.text)
    prf_cleanup_func                         0x200039f1   Thumb Code   116  prf_utils.o(.text)
    streamdatad_init                         0x20003a89   Thumb Code    28  streamdatad.o(.text)
    spotar_init                              0x200040fd   Thumb Code    28  spotar.o(.text)
    spotar_patched_data_rcved                0x20004119   Thumb Code    38  spotar.o(.text)
    spotar_disable                           0x2000413f   Thumb Code    44  spotar.o(.text)
    diss_init                                0x20004275   Thumb Code    28  diss.o(.text)
    diss_compute_cfg_flag                    0x20004291   Thumb Code    38  diss.o(.text)
    diss_check_val_len                       0x200042b7   Thumb Code    42  diss.o(.text)
    diss_disable                             0x200042e1   Thumb Code    42  diss.o(.text)
    app_init                                 0x20004319   Thumb Code    62  app.o(.text)
    app_db_init                              0x20004357   Thumb Code     8  app.o(.text)
    app_disconnect                           0x2000435f   Thumb Code    34  app.o(.text)
    app_timer_set                            0x20004381   Thumb Code    24  app.o(.text)
    app_connect_confirm                      0x20004399   Thumb Code    82  app.o(.text)
    app_adv_start                            0x200043eb   Thumb Code    36  app.o(.text)
    app_adv_stop                             0x2000440f   Thumb Code    26  app.o(.text)
    app_param_update_start                   0x20004429   Thumb Code     8  app.o(.text)
    app_connect                              0x20004431   Thumb Code    62  app.o(.text)
    app_sec_gen_tk                           0x200044ad   Thumb Code    18  app_sec.o(.text)
    app_sec_gen_ltk                          0x200044bf   Thumb Code    74  app_sec.o(.text)
    app_sec_init                             0x20004509   Thumb Code    16  app_sec.o(.text)
    app_security_start                       0x20004519   Thumb Code    46  app_sec.o(.text)
    gapc_bond_req_ind_handler                0x2000455d   Thumb Code    82  app_sec_task.o(.text)
    gapc_bond_ind_handler                    0x200045af   Thumb Code    66  app_sec_task.o(.text)
    gapc_encrypt_req_ind_handler             0x200045f1   Thumb Code   120  app_sec_task.o(.text)
    gapc_encrypt_ind_handler                 0x20004669   Thumb Code    10  app_sec_task.o(.text)
    gapm_device_ready_ind_handler            0x20004681   Thumb Code    36  app_task.o(.text)
    gapm_cmp_evt_handler                     0x200046a5   Thumb Code   130  app_task.o(.text)
    gapc_connection_req_ind_handler          0x20004727   Thumb Code    32  app_task.o(.text)
    gapc_cmp_evt_handler                     0x20004747   Thumb Code    50  app_task.o(.text)
    gapc_disconnect_ind_handler              0x20004779   Thumb Code    12  app_task.o(.text)
    app_module_init_cmp_evt_handler          0x20004785   Thumb Code    36  app_task.o(.text)
    gapm_adv_report_ind_handler              0x200047a9   Thumb Code    12  app_task.o(.text)
    motor_handleEx                           0x200047bd   Thumb Code   182  app_throughput_peripheral_proj.o(.text)
    adc_timer_handle                         0x20004873   Thumb Code   270  app_throughput_peripheral_proj.o(.text)
    uart_handle                              0x20004981   Thumb Code    34  app_throughput_peripheral_proj.o(.text)
    motor_handle                             0x200049a3   Thumb Code   186  app_throughput_peripheral_proj.o(.text)
    motor_reset_handleEx                     0x20004a5d   Thumb Code    98  app_throughput_peripheral_proj.o(.text)
    motor_reset_handle                       0x20004abf   Thumb Code   132  app_throughput_peripheral_proj.o(.text)
    key_scan_handle                          0x20004b43   Thumb Code     4  app_throughput_peripheral_proj.o(.text)
    key_dispose_handle                       0x20004b47   Thumb Code     4  app_throughput_peripheral_proj.o(.text)
    app_init_func                            0x20004b4b   Thumb Code    12  app_throughput_peripheral_proj.o(.text)
    app_sec_init_func                        0x20004b57   Thumb Code     2  app_throughput_peripheral_proj.o(.text)
    app_connection_func                      0x20004b59   Thumb Code    58  app_throughput_peripheral_proj.o(.text)
    app_adv_func                             0x20004b93   Thumb Code   352  app_throughput_peripheral_proj.o(.text)
    app_disconnect_func                      0x20004cf3   Thumb Code    42  app_throughput_peripheral_proj.o(.text)
    app_db_init_func                         0x20004d1d   Thumb Code    62  app_throughput_peripheral_proj.o(.text)
    app_param_update_func                    0x20004d5b   Thumb Code     2  app_throughput_peripheral_proj.o(.text)
    app_configuration_func                   0x20004d5d   Thumb Code    22  app_throughput_peripheral_proj.o(.text)
    app_set_dev_config_complete_func         0x20004d73   Thumb Code    24  app_throughput_peripheral_proj.o(.text)
    app_update_params_rejected_func          0x20004d8b   Thumb Code     2  app_throughput_peripheral_proj.o(.text)
    app_update_params_complete_func          0x20004d8d   Thumb Code     2  app_throughput_peripheral_proj.o(.text)
    app_adv_undirect_complete                0x20004d8f   Thumb Code     2  app_throughput_peripheral_proj.o(.text)
    app_adv_direct_complete                  0x20004d91   Thumb Code     2  app_throughput_peripheral_proj.o(.text)
    app_db_init_complete_func                0x20004d93   Thumb Code     8  app_throughput_peripheral_proj.o(.text)
    app_scanning_completed_func              0x20004d9b   Thumb Code     2  app_throughput_peripheral_proj.o(.text)
    app_connect_func                         0x20004d9d   Thumb Code     2  app_throughput_peripheral_proj.o(.text)
    app_adv_report_ind_func                  0x20004d9f   Thumb Code     2  app_throughput_peripheral_proj.o(.text)
    app_connect_failed_func                  0x20004da1   Thumb Code     2  app_throughput_peripheral_proj.o(.text)
    app_send_pairing_rsp_func                0x20004da3   Thumb Code     2  app_throughput_peripheral_proj.o(.text)
    app_send_tk_exch_func                    0x20004da5   Thumb Code     2  app_throughput_peripheral_proj.o(.text)
    app_send_irk_exch_func                   0x20004da7   Thumb Code     2  app_throughput_peripheral_proj.o(.text)
    app_send_csrk_exch_func                  0x20004da9   Thumb Code     2  app_throughput_peripheral_proj.o(.text)
    app_send_ltk_exch_func                   0x20004dab   Thumb Code     2  app_throughput_peripheral_proj.o(.text)
    app_paired_func                          0x20004dad   Thumb Code     2  app_throughput_peripheral_proj.o(.text)
    app_validate_encrypt_req_func            0x20004daf   Thumb Code     4  app_throughput_peripheral_proj.o(.text)
    app_sec_encrypt_ind_func                 0x20004db3   Thumb Code     2  app_throughput_peripheral_proj.o(.text)
    app_sec_encrypt_complete_func            0x20004db5   Thumb Code     2  app_throughput_peripheral_proj.o(.text)
    app_mitm_passcode_entry_func             0x20004db7   Thumb Code     2  app_throughput_peripheral_proj.o(.text)
    app_ext_stats_report_send                0x20004db9   Thumb Code    10  app_throughput_peripheral_proj.o(.text)
    my_timer_handler                         0x20004dc3   Thumb Code   128  app_throughput_peripheral_proj.o(.text)
    app_stream_create_db                     0x20004e91   Thumb Code    24  app_streamdatad.o(.text)
    app_streamdatad_enable                   0x20004ea9   Thumb Code    30  app_streamdatad.o(.text)
    stream_create_db_cfm_handler             0x20004ed1   Thumb Code    38  app_streamdatad_task.o(.text)
    spotar_create_db_cfm_handler             0x20004ef9   Thumb Code    38  app_spotar_task.o(.text)
    spotar_patch_data_ind_handler            0x20004f1f   Thumb Code   144  app_spotar_task.o(.text)
    spotar_patch_mem_dev_ind_handler         0x20004faf   Thumb Code    26  app_spotar_task.o(.text)
    spotar_gpio_map_ind_handler              0x20004fc9   Thumb Code    58  app_spotar_task.o(.text)
    spotar_patch_len_ind_handler             0x20005003   Thumb Code    74  app_spotar_task.o(.text)
    app_spotar_init                          0x20005059   Thumb Code    24  app_spotar.o(.text)
    app_spotar_reset                         0x20005071   Thumb Code    12  app_spotar.o(.text)
    app_spotar_create_db                     0x2000507d   Thumb Code    24  app_spotar.o(.text)
    app_spotar_enable                        0x20005095   Thumb Code    36  app_spotar.o(.text)
    spotar_send_status_update_req            0x200050b9   Thumb Code    34  app_spotar.o(.text)
    app_spotar_stop                          0x200050db   Thumb Code    20  app_spotar.o(.text)
    app_set_image_valid_flag                 0x200050ef   Thumb Code    42  app_spotar.o(.text)
    app_spotar_start                         0x20005119   Thumb Code    34  app_spotar.o(.text)
    app_spotar_read_mem                      0x2000513b   Thumb Code   204  app_spotar.o(.text)
    spotar_send_mem_info_update_req          0x20005207   Thumb Code    28  app_spotar.o(.text)
    app_spi_flash_init                       0x20005223   Thumb Code    68  app_spotar.o(.text)
    app_spotar_spi_config                    0x20005267   Thumb Code   356  app_spotar.o(.text)
    app_spotar_pd_hdlr                       0x200053cb   Thumb Code   240  app_spotar.o(.text)
    app_erase_flash_sectors                  0x200054bb   Thumb Code    58  app_spotar.o(.text)
    app_get_image_id                         0x200054f5   Thumb Code    16  app_spotar.o(.text)
    app_find_old_img                         0x20005505   Thumb Code    36  app_spotar.o(.text)
    app_read_ext_mem                         0x20005529   Thumb Code    24  app_spotar.o(.text)
    app_read_image_headers                   0x20005541   Thumb Code   518  app_spotar.o(.text)
    app_spotar_img_hdlr                      0x20005747   Thumb Code   162  app_spotar.o(.text)
    app_spotar_exec_patch                    0x200057e9   Thumb Code    36  app_spotar.o(.text)
    app_spotar_i2c_config                    0x2000580d   Thumb Code   212  app_spotar.o(.text)
    diss_create_db_cfm_handler               0x200058e1   Thumb Code   292  app_dis_task.o(.text)
    diss_disable_ind_handler                 0x20005a05   Thumb Code     4  app_dis_task.o(.text)
    app_dis_init                             0x20005a45   Thumb Code     2  app_dis.o(.text)
    app_dis_create_db_send                   0x20005a47   Thumb Code    26  app_dis.o(.text)
    app_dis_enable_prf                       0x20005a61   Thumb Code    32  app_dis.o(.text)
    __aeabi_fmul                             0x20005a85   Thumb Code   122  fmul.o(.text)
    __aeabi_fdiv                             0x20005aff   Thumb Code   124  fdiv.o(.text)
    __ARM_scalbnf                            0x20005b7b   Thumb Code    24  fscalb.o(.text)
    scalbnf                                  0x20005b7b   Thumb Code     0  fscalb.o(.text)
    __aeabi_dadd                             0x20005b95   Thumb Code   328  dadd.o(.text)
    __aeabi_dsub                             0x20005cdd   Thumb Code    12  dadd.o(.text)
    __aeabi_drsub                            0x20005ce9   Thumb Code    12  dadd.o(.text)
    __aeabi_ddiv                             0x20005cf9   Thumb Code   234  ddiv.o(.text)
    __aeabi_ui2f                             0x20005de9   Thumb Code    14  ffltui.o(.text)
    __aeabi_f2uiz                            0x20005df7   Thumb Code    40  ffixui.o(.text)
    __aeabi_d2uiz                            0x20005e21   Thumb Code    50  dfixui.o(.text)
    __aeabi_f2d                              0x20005e5d   Thumb Code    40  f2d.o(.text)
    __aeabi_d2f                              0x20005e85   Thumb Code    56  d2f.o(.text)
    __aeabi_lasr                             0x20005ebd   Thumb Code    38  llsshr.o(.text)
    _ll_sshift_r                             0x20005ebd   Thumb Code     0  llsshr.o(.text)
    _float_round                             0x20005ee3   Thumb Code    16  fepilogue.o(.text)
    _float_epilogue                          0x20005ef3   Thumb Code   114  fepilogue.o(.text)
    __scatterload                            0x20005f65   Thumb Code    28  init.o(.text)
    __scatterload_rt2                        0x20005f65   Thumb Code     0  init.o(.text)
    Long Thumb to Thumb Veneer to set_system_clocks 0x20005f89   Thumb Code    12  anon$$obj.o(Veneer$$Code)
    Long Thumb to Thumb Veneer to srand      0x20005f95   Thumb Code    12  anon$$obj.o(Veneer$$Code)
    Long Thumb to Thumb Veneer to nvds_init  0x20005fa1   Thumb Code    12  anon$$obj.o(Veneer$$Code)
    Long Thumb to Thumb Veneer to rwip_init  0x20005fad   Thumb Code    12  anon$$obj.o(Veneer$$Code)
    Long Thumb to Thumb Veneer to enable_rf_diag_irq 0x20005fb9   Thumb Code    12  anon$$obj.o(Veneer$$Code)
    Long Thumb to Thumb Veneer to app_get_sleep_mode 0x20005fc5   Thumb Code    12  anon$$obj.o(Veneer$$Code)
    Long Thumb to Thumb Veneer to rwip_prevent_sleep_get 0x20005fd1   Thumb Code    12  anon$$obj.o(Veneer$$Code)
    Long Thumb to Thumb Veneer to ke_event_get 0x20005fdd   Thumb Code    12  anon$$obj.o(Veneer$$Code)
    Long Thumb to Thumb Veneer to rwip_schedule 0x20005fe9   Thumb Code    12  anon$$obj.o(Veneer$$Code)
    Long Thumb to Thumb Veneer to lld_sleep_check 0x20005ff5   Thumb Code    12  anon$$obj.o(Veneer$$Code)
    Long Thumb to Thumb Veneer to func_check_mem 0x20006001   Thumb Code    12  anon$$obj.o(Veneer$$Code)
    Long Thumb to Thumb Veneer to test_rxdone 0x2000600d   Thumb Code    12  anon$$obj.o(Veneer$$Code)
    Long Thumb to Thumb Veneer to ke_mem_is_empty 0x20006019   Thumb Code    12  anon$$obj.o(Veneer$$Code)
    Long Thumb to Thumb Veneer to __aeabi_uidivmod 0x20006025   Thumb Code    12  anon$$obj.o(Veneer$$Code)
    Long Thumb to Thumb Veneer to __aeabi_idivmod 0x20006031   Thumb Code    12  anon$$obj.o(Veneer$$Code)
    Long Thumb to Thumb Veneer to __aeabi_ui2d 0x2000603d   Thumb Code    12  anon$$obj.o(Veneer$$Code)
    Long Thumb to Thumb Veneer to __aeabi_dmul 0x20006049   Thumb Code    12  anon$$obj.o(Veneer$$Code)
    Long Thumb to Thumb Veneer to attmdb_att_set_value 0x20006055   Thumb Code    12  anon$$obj.o(Veneer$$Code)
    Long Thumb to Thumb Veneer to rwip_wakeup_delay_set 0x20006061   Thumb Code    12  anon$$obj.o(Veneer$$Code)
    Long Thumb to Thumb Veneer to $Super$$get_rc16m_count_func 0x2000606d   Thumb Code    12  anon$$obj.o(Veneer$$Code)
    Long Thumb to Thumb Veneer to get_rc16m_count 0x20006079   Thumb Code    12  anon$$obj.o(Veneer$$Code)
    Long Thumb to Thumb Veneer to pll_vcocal_LUT_InitUpdate 0x20006085   Thumb Code    12  anon$$obj.o(Veneer$$Code)
    Long Thumb to Thumb Veneer to rf_calibration 0x20006091   Thumb Code    12  anon$$obj.o(Veneer$$Code)
    Long Thumb to Thumb Veneer to lld_sleep_us_2_lpcycles_func 0x2000609d   Thumb Code    12  anon$$obj.o(Veneer$$Code)
    Long Thumb to Thumb Veneer to lld_sleep_lpcycles_2_us_func 0x200060a9   Thumb Code    12  anon$$obj.o(Veneer$$Code)
    Long Thumb to Thumb Veneer to uart_flow_on 0x200060b5   Thumb Code    12  anon$$obj.o(Veneer$$Code)
    Long Thumb to Thumb Veneer to __aeabi_memcpy 0x200060c1   Thumb Code    12  anon$$obj.o(Veneer$$Code)
    Long Thumb to Thumb Veneer to co_list_pop_front 0x200060cd   Thumb Code    12  anon$$obj.o(Veneer$$Code)
    Long Thumb to Thumb Veneer to ke_task_handler_get 0x200060d9   Thumb Code    12  anon$$obj.o(Veneer$$Code)
    Long Thumb to Thumb Veneer to ke_msg_free 0x200060e5   Thumb Code    12  anon$$obj.o(Veneer$$Code)
    Long Thumb to Thumb Veneer to co_list_push_back 0x200060f1   Thumb Code    12  anon$$obj.o(Veneer$$Code)
    Long Thumb to Thumb Veneer to ke_event_clear 0x200060fd   Thumb Code    12  anon$$obj.o(Veneer$$Code)
    Long Thumb to Thumb Veneer to __aeabi_memclr4 0x20006109   Thumb Code    12  anon$$obj.o(Veneer$$Code)
    Long Thumb to Thumb Veneer to ke_event_callback_set 0x20006115   Thumb Code    12  anon$$obj.o(Veneer$$Code)
    Long Thumb to Thumb Veneer to lld_con_update_ind 0x20006121   Thumb Code    12  anon$$obj.o(Veneer$$Code)
    Long Thumb to Thumb Veneer to ke_state_set 0x2000612d   Thumb Code    12  anon$$obj.o(Veneer$$Code)
    Long Thumb to Thumb Veneer to llc_util_dicon_procedure 0x20006139   Thumb Code    12  anon$$obj.o(Veneer$$Code)
    Long Thumb to Thumb Veneer to lld_ch_map_ind 0x20006145   Thumb Code    12  anon$$obj.o(Veneer$$Code)
    Long Thumb to Thumb Veneer to ke_state_get 0x20006151   Thumb Code    12  anon$$obj.o(Veneer$$Code)
    Long Thumb to Thumb Veneer to __ARM_common_switch8 0x2000615d   Thumb Code    12  anon$$obj.o(Veneer$$Code)
    Long Thumb to Thumb Veneer to ke_timer_clear 0x20006169   Thumb Code    12  anon$$obj.o(Veneer$$Code)
    Long Thumb to Thumb Veneer to atts_send_cmd_cmp 0x20006175   Thumb Code    12  anon$$obj.o(Veneer$$Code)
    Long Thumb to Thumb Veneer to atts_mtu_exc_resp 0x20006181   Thumb Code    12  anon$$obj.o(Veneer$$Code)
    Long Thumb to Thumb Veneer to atts_find_info_resp 0x2000618d   Thumb Code    12  anon$$obj.o(Veneer$$Code)
    Long Thumb to Thumb Veneer to atts_find_by_type_resp 0x20006199   Thumb Code    12  anon$$obj.o(Veneer$$Code)
    Long Thumb to Thumb Veneer to atts_read_by_type_resp 0x200061a5   Thumb Code    12  anon$$obj.o(Veneer$$Code)
    Long Thumb to Thumb Veneer to atts_read_by_grp_type_resp 0x200061b1   Thumb Code    12  anon$$obj.o(Veneer$$Code)
    Long Thumb to Thumb Veneer to atts_read_resp 0x200061bd   Thumb Code    12  anon$$obj.o(Veneer$$Code)
    Long Thumb to Thumb Veneer to atts_read_blob_resp 0x200061c9   Thumb Code    12  anon$$obj.o(Veneer$$Code)
    Long Thumb to Thumb Veneer to atts_read_mult_resp 0x200061d5   Thumb Code    12  anon$$obj.o(Veneer$$Code)
    Long Thumb to Thumb Veneer to atts_write_no_resp 0x200061e1   Thumb Code    12  anon$$obj.o(Veneer$$Code)
    Long Thumb to Thumb Veneer to atts_write_resp 0x200061ed   Thumb Code    12  anon$$obj.o(Veneer$$Code)
    Long Thumb to Thumb Veneer to atts_signed_write_resp 0x200061f9   Thumb Code    12  anon$$obj.o(Veneer$$Code)
    Long Thumb to Thumb Veneer to atts_prepare_write_resp 0x20006205   Thumb Code    12  anon$$obj.o(Veneer$$Code)
    Long Thumb to Thumb Veneer to atts_execute_write_resp 0x20006211   Thumb Code    12  anon$$obj.o(Veneer$$Code)
    Long Thumb to Thumb Veneer to ke_msg_alloc 0x2000621d   Thumb Code    12  anon$$obj.o(Veneer$$Code)
    Long Thumb to Thumb Veneer to gapc_get_enc_keysize 0x20006229   Thumb Code    12  anon$$obj.o(Veneer$$Code)
    Long Thumb to Thumb Veneer to gapc_get_role 0x20006235   Thumb Code    12  anon$$obj.o(Veneer$$Code)
    Long Thumb to Thumb Veneer to ke_msg_send 0x20006241   Thumb Code    12  anon$$obj.o(Veneer$$Code)
    Long Thumb to Thumb Veneer to smpc_generate_rand 0x2000624d   Thumb Code    12  anon$$obj.o(Veneer$$Code)
    Long Thumb to Thumb Veneer to smpc_tkdp_send_continue 0x20006259   Thumb Code    12  anon$$obj.o(Veneer$$Code)
    Long Thumb to Thumb Veneer to smpc_pdu_send 0x20006265   Thumb Code    12  anon$$obj.o(Veneer$$Code)
    Long Thumb to Thumb Veneer to smpc_tkdp_rcp_start 0x20006271   Thumb Code    12  anon$$obj.o(Veneer$$Code)
    Long Thumb to Thumb Veneer to smpc_pairing_end 0x2000627d   Thumb Code    12  anon$$obj.o(Veneer$$Code)
    Long Thumb to Thumb Veneer to smpc_check_max_key_size 0x20006289   Thumb Code    12  anon$$obj.o(Veneer$$Code)
    Long Thumb to Thumb Veneer to smpc_check_key_distrib 0x20006295   Thumb Code    12  anon$$obj.o(Veneer$$Code)
    Long Thumb to Thumb Veneer to smpc_get_key_sec_prop 0x200062a1   Thumb Code    12  anon$$obj.o(Veneer$$Code)
    Long Thumb to Thumb Veneer to smpc_is_sec_mode_reached 0x200062ad   Thumb Code    12  anon$$obj.o(Veneer$$Code)
    Long Thumb to Thumb Veneer to gapm_get_privacy_flag 0x200062b9   Thumb Code    12  anon$$obj.o(Veneer$$Code)
    Long Thumb to Thumb Veneer to gapm_set_recon_addr 0x200062c5   Thumb Code    12  anon$$obj.o(Veneer$$Code)
    Long Thumb to Thumb Veneer to memcmp     0x200062d1   Thumb Code    12  anon$$obj.o(Veneer$$Code)
    Long Thumb to Thumb Veneer to ke_sleep_check 0x200062dd   Thumb Code    12  anon$$obj.o(Veneer$$Code)
    Long Thumb to Thumb Veneer to ke_timer_sleep_check 0x200062e9   Thumb Code    12  anon$$obj.o(Veneer$$Code)
    Long Thumb to Thumb Veneer to gtl_enter_sleep 0x200062f5   Thumb Code    12  anon$$obj.o(Veneer$$Code)
    Long Thumb to Thumb Veneer to lld_sleep_enter 0x20006301   Thumb Code    12  anon$$obj.o(Veneer$$Code)
    Long Thumb to Thumb Veneer to ble_regs_push 0x2000630d   Thumb Code    12  anon$$obj.o(Veneer$$Code)
    Long Thumb to Thumb Veneer to $Super$$BLE_CSCNT_Handler 0x20006319   Thumb Code    12  anon$$obj.o(Veneer$$Code)
    Long Thumb to Thumb Veneer to lld_evt_start_isr 0x20006325   Thumb Code    12  anon$$obj.o(Veneer$$Code)
    Long Thumb to Thumb Veneer to ble_regs_pop 0x20006331   Thumb Code    12  anon$$obj.o(Veneer$$Code)
    Long Thumb to Thumb Veneer to gtl_eif_init 0x2000633d   Thumb Code    12  anon$$obj.o(Veneer$$Code)
    Long Thumb to Thumb Veneer to rwip_wakeup 0x20006349   Thumb Code    12  anon$$obj.o(Veneer$$Code)
    Long Thumb to Thumb Veneer to rf_workaround_init 0x20006355   Thumb Code    12  anon$$obj.o(Veneer$$Code)
    Long Thumb to Thumb Veneer to rf_reinit  0x20006361   Thumb Code    12  anon$$obj.o(Veneer$$Code)
    Long Thumb to Thumb Veneer to lld_evt_rx_isr 0x2000636d   Thumb Code    12  anon$$obj.o(Veneer$$Code)
    Long Thumb to Thumb Veneer to lld_evt_end_isr 0x20006379   Thumb Code    12  anon$$obj.o(Veneer$$Code)
    Long Thumb to Thumb Veneer to set_rf_cal_cap 0x20006385   Thumb Code    12  anon$$obj.o(Veneer$$Code)
    Long Thumb to Thumb Veneer to set_gauss_modgain 0x20006391   Thumb Code    12  anon$$obj.o(Veneer$$Code)
    Long Thumb to Thumb Veneer to gapc_get_conhdl 0x2000639d   Thumb Code    12  anon$$obj.o(Veneer$$Code)
    Long Thumb to Thumb Veneer to gapc_send_disconect_ind 0x200063a9   Thumb Code    12  anon$$obj.o(Veneer$$Code)
    Long Thumb to Thumb Veneer to __aeabi_memclr 0x200063b5   Thumb Code    12  anon$$obj.o(Veneer$$Code)
    Long Thumb to Thumb Veneer to ke_task_create 0x200063c1   Thumb Code    12  anon$$obj.o(Veneer$$Code)
    Long Thumb to Thumb Veneer to attm_svc_create_db 0x200063cd   Thumb Code    12  anon$$obj.o(Veneer$$Code)
    Long Thumb to Thumb Veneer to attmdb_svc_set_permission 0x200063d9   Thumb Code    12  anon$$obj.o(Veneer$$Code)
    Long Thumb to Thumb Veneer to gapc_get_conidx 0x200063e5   Thumb Code    12  anon$$obj.o(Veneer$$Code)
    Long Thumb to Thumb Veneer to attmdb_att_update_value 0x200063f1   Thumb Code    12  anon$$obj.o(Veneer$$Code)
    Long Thumb to Thumb Veneer to atts_write_rsp_send 0x200063fd   Thumb Code    12  anon$$obj.o(Veneer$$Code)
    Long Thumb to Thumb Veneer to attmdb_add_service 0x20006409   Thumb Code    12  anon$$obj.o(Veneer$$Code)
    Long Thumb to Thumb Veneer to attmdb_add_attribute 0x20006415   Thumb Code    12  anon$$obj.o(Veneer$$Code)
    Long Thumb to Thumb Veneer to attmdb_att_get_value 0x20006421   Thumb Code    12  anon$$obj.o(Veneer$$Code)
    Long Thumb to Thumb Veneer to nvds_get   0x2000642d   Thumb Code    12  anon$$obj.o(Veneer$$Code)
    Long Thumb to Thumb Veneer to ke_timer_set 0x20006439   Thumb Code    12  anon$$obj.o(Veneer$$Code)
    Long Thumb to Thumb Veneer to rand       0x20006445   Thumb Code    12  anon$$obj.o(Veneer$$Code)
    Long Thumb to Thumb Veneer to __aeabi_cdcmple 0x20006451   Thumb Code    12  anon$$obj.o(Veneer$$Code)
    Long Thumb to Thumb Veneer to __aeabi_memcpy4 0x2000645d   Thumb Code    12  anon$$obj.o(Veneer$$Code)
    Long Thumb to Thumb Veneer to get_patching_spota_length 0x20006469   Thumb Code    12  anon$$obj.o(Veneer$$Code)
    Long Thumb to Thumb Veneer to platform_reset 0x20006475   Thumb Code    12  anon$$obj.o(Veneer$$Code)
    Long Thumb to Thumb Veneer to __aeabi_llsl 0x20006481   Thumb Code    12  anon$$obj.o(Veneer$$Code)
    Long Thumb to Thumb Veneer to __aeabi_memset 0x2000648d   Thumb Code    12  anon$$obj.o(Veneer$$Code)
    Long Thumb to Thumb Veneer to exec_patching_spota 0x20006499   Thumb Code    12  anon$$obj.o(Veneer$$Code)
    Long Thumb to Thumb Veneer to _double_epilogue 0x200064a5   Thumb Code    12  anon$$obj.o(Veneer$$Code)
    Long Thumb to Thumb Veneer to _double_round 0x200064b1   Thumb Code    12  anon$$obj.o(Veneer$$Code)
    Long Thumb to Thumb Veneer to __aeabi_llsr 0x200064bd   Thumb Code    12  anon$$obj.o(Veneer$$Code)
    GPIO_ConfigurePin                        0x200064c9   Thumb Code    78  gpio.o(i.GPIO_ConfigurePin)
    GPIO_EnableIRQ                           0x2000651d   Thumb Code   586  gpio.o(i.GPIO_EnableIRQ)
    GPIO_GetPinStatus                        0x20006781   Thumb Code    64  gpio.o(i.GPIO_GetPinStatus)
    GPIO_ResetIRQ                            0x200067c9   Thumb Code   146  gpio.o(i.GPIO_ResetIRQ)
    GPIO_SetActive                           0x20006861   Thumb Code    58  gpio.o(i.GPIO_SetActive)
    GPIO_SetInactive                         0x200068a5   Thumb Code    58  gpio.o(i.GPIO_SetInactive)
    GPIO_SetPinFunction                      0x200068e9   Thumb Code    64  gpio.o(i.GPIO_SetPinFunction)
    GPIO_init                                0x20006931   Thumb Code   140  gpio.o(i.GPIO_init)
    __scatterload_copy                       0x200069c5   Thumb Code    14  handlers.o(i.__scatterload_copy)
    __scatterload_null                       0x200069d3   Thumb Code     2  handlers.o(i.__scatterload_null)
    __scatterload_zeroinit                   0x200069d5   Thumb Code    14  handlers.o(i.__scatterload_zeroinit)
    set_tmr_div                              0x200069e5   Thumb Code    18  pwm.o(i.set_tmr_div)
    set_tmr_enable                           0x200069fd   Thumb Code    18  pwm.o(i.set_tmr_enable)
    timer0_start                             0x20006a15   Thumb Code    12  pwm.o(i.timer0_start)
    timer2_enable                            0x20006a25   Thumb Code    18  pwm.o(i.timer2_enable)
    timer2_set_hw_pause                      0x20006a3d   Thumb Code    18  pwm.o(i.timer2_set_hw_pause)
    timer2_set_pwm2_duty_cycle               0x20006a55   Thumb Code     6  pwm.o(i.timer2_set_pwm2_duty_cycle)
    timer2_set_sw_pause                      0x20006a61   Thumb Code    18  pwm.o(i.timer2_set_sw_pause)
    patch_table                              0x20006a78   Data          32  arch_main.o(.constdata)
    LUT_CFG                                  0x20006a98   Data          22  arch_main.o(.constdata)
    SPI_FLASH_KNOWN_DEVICES_PARAMETERS_LIST  0x20006ab8   Data          80  spi_flash.o(.constdata)
    streamdatad_disabled                     0x20006bb0   Data           8  streamdatad_task.o(.constdata)
    streamdatad_idle                         0x20006bb8   Data           8  streamdatad_task.o(.constdata)
    streamdatad_active                       0x20006bc0   Data          16  streamdatad_task.o(.constdata)
    streamdatad_state_handler                0x20006bd0   Data          24  streamdatad_task.o(.constdata)
    streamdatad_default_handler              0x20006be8   Data           8  streamdatad_task.o(.constdata)
    spotar_disabled                          0x20006bf0   Data           8  spotar_task.o(.constdata)
    spotar_idle                              0x20006bf8   Data           8  spotar_task.o(.constdata)
    spotar_active                            0x20006c00   Data          24  spotar_task.o(.constdata)
    spotar_default_state                     0x20006c18   Data           8  spotar_task.o(.constdata)
    spotar_state_handler                     0x20006c20   Data          24  spotar_task.o(.constdata)
    spotar_default_handler                   0x20006c38   Data           8  spotar_task.o(.constdata)
    spotar_service                           0x20006c40   Data           2  spotar.o(.constdata)
    spotar_patch_mem_dev_val                 0x20006c42   Data          16  spotar.o(.constdata)
    spotar_gpio_map_val                      0x20006c52   Data          16  spotar.o(.constdata)
    spotar_patch_mem_info_val                0x20006c62   Data          16  spotar.o(.constdata)
    spotar_patch_len_val                     0x20006c72   Data          16  spotar.o(.constdata)
    spotar_patch_data_val                    0x20006c82   Data          16  spotar.o(.constdata)
    spotar_patch_status_val                  0x20006c92   Data          16  spotar.o(.constdata)
    diss_disabled                            0x20006cb4   Data           8  diss_task.o(.constdata)
    diss_idle                                0x20006cbc   Data          16  diss_task.o(.constdata)
    diss_default_state                       0x20006ccc   Data           8  diss_task.o(.constdata)
    diss_state_handler                       0x20006cd4   Data          24  diss_task.o(.constdata)
    diss_default_handler                     0x20006cec   Data           8  diss_task.o(.constdata)
    diss_att_db                              0x20006cf4   Data         228  diss.o(.constdata)
    diss_dis_svc                             0x20006dd8   Data           2  diss.o(.constdata)
    diss_manufacturer_name_char              0x20006dda   Data           5  diss.o(.constdata)
    diss_model_nb_str_char                   0x20006ddf   Data           5  diss.o(.constdata)
    diss_serial_nb_str_char                  0x20006de4   Data           5  diss.o(.constdata)
    diss_hard_rev_str_char                   0x20006de9   Data           5  diss.o(.constdata)
    diss_firm_rev_str_char                   0x20006dee   Data           5  diss.o(.constdata)
    diss_sw_rev_str_char                     0x20006df3   Data           5  diss.o(.constdata)
    diss_system_id_char                      0x20006df8   Data           5  diss.o(.constdata)
    diss_ieee_char                           0x20006dfd   Data           5  diss.o(.constdata)
    diss_pnp_id_char                         0x20006e02   Data           5  diss.o(.constdata)
    app_default_state                        0x20006e28   Data         208  app_task.o(.constdata)
    app_default_handler                      0x20006ef8   Data           8  app_task.o(.constdata)
    Region$$Table$$Base                      0x20006f10   Number         0  anon$$obj.o(Region$$Table)
    Power                                    0x20006f50   Data           1  arch_main.o(.data)
    Region$$Table$$Limit                     0x20006f50   Number         0  anon$$obj.o(Region$$Table)
    MotorOn                                  0x20006f51   Data           1  arch_main.o(.data)
    Motor                                    0x20006f52   Data           1  arch_main.o(.data)
    first_count_status                       0x20006f53   Data           1  arch_main.o(.data)
    first55_flag                             0x20006f54   Data           1  arch_main.o(.data)
    rf_send_sta                              0x20006f55   Data           1  arch_main.o(.data)
    cFunctionType                            0x20006f56   Data           1  arch_main.o(.data)
    avg_value                                0x20006f57   Data           1  arch_main.o(.data)
    M10frm                                   0x20006f58   Data           4  arch_main.o(.data)
    alarm_sta                                0x20006f5c   Data           1  periph_setup.o(.data)
    RestoreSetting                           0x20006f5d   Data           9  periph_setup.o(.data)
    ResSetting                               0x20006f66   Data           9  periph_setup.o(.data)
    spotar_patch_mem_dev_char                0x20006f6f   Data          19  spotar.o(.data)
    spotar_gpio_map_char                     0x20006f82   Data          19  spotar.o(.data)
    spotar_patch_mem_info_char               0x20006f95   Data          19  spotar.o(.data)
    spotar_patch_len_char                    0x20006fa8   Data          19  spotar.o(.data)
    spotar_patch_data_char                   0x20006fbb   Data          19  spotar.o(.data)
    spotar_patch_status_char                 0x20006fce   Data          19  spotar.o(.data)
    uBatRemainPercent                        0x20006fe1   Data           1  app_throughput_peripheral_proj.o(.data)
    spota_new_pd                             0x20006fe4   Data          80  app_spotar.o(spotar_patch_area)
    spota_all_pd                             0x20007034   Data         256  app_spotar.o(spotar_patch_area)
    alarm_temp                               0x20008000   Data           1  periph_setup.o(.bss)
    detected_spi_flash_device_index          0x20008001   Data           1  periph_setup.o(.bss)
    LacalAddress                             0x20008002   Data           2  periph_setup.o(.bss)
    spi_FLASH_CS_Pad                         0x20008004   Data           2  periph_setup.o(.bss)
    iseccnt3                                 0x20008006   Data           2  pwm.o(.bss)
    spi_driver_cs_pad                        0x20008008   Data           2  spi.o(.bss)
    spi_flash_device_index                   0x2000800c   Data           2  spi_flash.o(.bss)
    spi_flash_detected_device                0x20008010   Data           4  spi_flash.o(.bss)
    spi_flash_size                           0x20008014   Data           4  spi_flash.o(.bss)
    spi_flash_page_size                      0x20008018   Data           4  spi_flash.o(.bss)
    BLE_MAC_Edit                             0x2000801c   Data           1  streamdatad_task.o(.bss)
    periph_addr_storage                      0x2000801d   Data           6  streamdatad_task.o(.bss)
    streamdatad_state                        0x20008023   Data           1  streamdatad_task.o(.bss)
    M10_Master_conready                      0x20008024   Data           1  app.o(.bss)
    ResetCnt                                 0x20008025   Data           1  app_throughput_peripheral_proj.o(.bss)
    sys_startup_flag                         0x20008026   Data           1  arch_main.o(retention_mem_area0)
    sleep_md                                 0x20008027   Data           1  arch_sleep.o(retention_mem_area0)
    sleep_pend                               0x20008028   Data           1  arch_sleep.o(retention_mem_area0)
    sleep_cnt                                0x20008029   Data           1  arch_sleep.o(retention_mem_area0)
    sleep_ext_force                          0x2000802a   Data           1  arch_sleep.o(retention_mem_area0)
    cal_enable                               0x2000802c   Data           1  arch_system.o(retention_mem_area0)
    lp_clk_sel                               0x20008030   Data           4  arch_system.o(retention_mem_area0)
    rcx_freq                                 0x20008034   Data           4  arch_system.o(retention_mem_area0)
    rcx_period                               0x20008038   Data           4  arch_system.o(retention_mem_area0)
    rcx_slot_duration                        0x2000803c   Data           4  arch_system.o(retention_mem_area0)
    dev_bdaddr                               0x20008040   Data           6  nvds.o(retention_mem_area0)
    rwble_last_event                         0x20008046   Data           1  rwble.o(retention_mem_area0)
    spotar_state                             0x20008047   Data           1  spotar_task.o(retention_mem_area0)
    spotar_env                               0x20008048   Data           8  spotar.o(retention_mem_area0)
    diss_state                               0x20008050   Data           1  diss_task.o(retention_mem_area0)
    diss_env                                 0x20008052   Data          18  diss.o(retention_mem_area0)
    app_env                                  0x20008064   Data          12  app.o(retention_mem_area0)
    app_sec_env                              0x20008070   Data          36  app_sec.o(retention_mem_area0)
    app_state                                0x20008094   Data           1  app_task.o(retention_mem_area0)
    spota_state                              0x20008098   Data          36  app_spotar.o(retention_mem_area0)
    rwip_heap_non_ret                        0x20008bf4   Data        1036  jump_table.o(heap_mem_area_not_ret)
    SystemCoreClock                          0x20009000   Data           0  rom_symdef.txt ABSOLUTE
    error                                    0x20009004   Data           0  rom_symdef.txt ABSOLUTE
    Activeflag                               0x20009020   Data           1  arch_main.o(.bss)
    alarm_signal                             0x20009021   Data           1  arch_main.o(.bss)
    clamp                                    0x20009022   Data           1  arch_main.o(.bss)
    keypress                                 0x20009023   Data           1  arch_main.o(.bss)
    senddata                                 0x20009024   Data           1  arch_main.o(.bss)
    speed_five_status                        0x20009025   Data           1  arch_main.o(.bss)
    speed_right_status                       0x20009026   Data           1  arch_main.o(.bss)
    halt                                     0x20009027   Data           1  arch_main.o(.bss)
    ResetFlg                                 0x20009028   Data           1  arch_main.o(.bss)
    iTempMIN                                 0x20009029   Data           1  arch_main.o(.bss)
    Key1                                     0x2000902a   Data           1  arch_main.o(.bss)
    Keylong                                  0x2000902b   Data           1  arch_main.o(.bss)
    SwordClose                               0x2000902c   Data           1  arch_main.o(.bss)
    RFOFF                                    0x2000902d   Data           1  arch_main.o(.bss)
    Keylonglong                              0x2000902e   Data           1  arch_main.o(.bss)
    KeylongCount                             0x2000902f   Data           1  arch_main.o(.bss)
    SetFlag                                  0x20009030   Data           1  arch_main.o(.bss)
    ZigbFlg                                  0x20009031   Data           1  arch_main.o(.bss)
    cIptWarning                              0x20009032   Data           1  arch_main.o(.bss)
    txCount                                  0x20009034   Data           2  arch_main.o(.bss)
    lkeyDownCount                            0x20009036   Data           2  arch_main.o(.bss)
    BeSecTmp                                 0x20009038   Data           4  arch_main.o(.bss)
    txBuffer                                 0x2000903c   Data          32  arch_main.o(.bss)
    value0                                   0x20009060   Data           2  gpio.o(.bss)
    DropINT                                  0x20009062   Data           2  gpio.o(.bss)
    count_present                            0x20009064   Data           2  gpio.o(.bss)
    GPIO_status                              0x20009068   Data           8  gpio.o(.bss)
    GPIO                                     0x20009070   Data         160  gpio.o(.bss)
    GPIOHandlerFunction                      0x20009110   Data          20  gpio.o(.bss)
    USART_RX_STA                             0x20009124   Data           1  uart.o(.bss)
    js                                       0x20009125   Data           1  uart.o(.bss)
    rxBuffer                                 0x20009126   Data          74  uart.o(.bss)
    DropCnt                                  0x20009172   Data           2  pwm.o(.bss)
    opencount                                0x20009174   Data           2  pwm.o(.bss)
    iSecCount                                0x20009176   Data           2  pwm.o(.bss)
    LEDCount                                 0x20009178   Data           2  pwm.o(.bss)
    SystemCount                              0x2000917a   Data           2  pwm.o(.bss)
    iSecCnt2                                 0x2000917c   Data           2  pwm.o(.bss)
    iseccnt4                                 0x2000917e   Data           2  pwm.o(.bss)
    ADCcount                                 0x20009180   Data           2  pwm.o(.bss)
    resetTime                                0x20009182   Data           2  pwm.o(.bss)
    setTime                                  0x20009184   Data           2  pwm.o(.bss)
    iseccnt4_flag                            0x20009186   Data           2  pwm.o(.bss)
    TIMER0_callback                          0x20009188   Data           4  pwm.o(.bss)
    timer                                    0x2000918c   Data          10  pwm.o(.bss)
    streamdatad_env                          0x20009196   Data          40  streamdatad.o(.bss)
    adv_timer_flag                           0x200091be   Data           1  app_throughput_peripheral_proj.o(.bss)
    uBatRemainPercentMA                      0x200091bf   Data           1  app_throughput_peripheral_proj.o(.bss)
    adbattery_status                         0x200091c0   Data           1  app_throughput_peripheral_proj.o(.bss)
    BatCnt                                   0x200091c1   Data           1  app_throughput_peripheral_proj.o(.bss)
    kai                                      0x200091c2   Data           1  app_throughput_peripheral_proj.o(.bss)
    flag_uart                                0x200091c6   Data           1  app_throughput_peripheral_proj.o(.bss)
    VIsenseCount                             0x200091c9   Data           1  app_throughput_peripheral_proj.o(.bss)
    dbg                                      0x200091ca   Data           1  app_throughput_peripheral_proj.o(.bss)
    VIsense_Avg                              0x200091cc   Data           2  app_throughput_peripheral_proj.o(.bss)
    BatBuf                                   0x200091ce   Data          10  app_throughput_peripheral_proj.o(.bss)
    VIsense                                  0x200091d8   Data          10  app_throughput_peripheral_proj.o(.bss)
    __initial_sp                             0x20009800   Data           0  boot_vectors.o(STACK)
    clk_per_reg                              0x50000004   Data           4  pwm.o(.ARM.__AT_0x50000004)
    timer0_ctrl_reg                          0x50003400   Data           4  pwm.o(.ARM.__AT_0x50003400)
    triple_pwm_ctrl_reg                      0x50003410   Data           4  pwm.o(.ARM.__AT_0x50003410)



==============================================================================

Memory Map of the image

  Image Entry point : 0x20000441

  Load Region LR_IROM1 (Base: 0x20000000, Size: 0x000000a0, Max: 0x00000160, ABSOLUTE)

    Execution Region ER_IROM1 (Exec base: 0x20000000, Load base: 0x20000000, Size: 0x000000a0, Max: 0x00000160, ABSOLUTE)

    Exec Addr    Load Addr    Size         Type   Attr      Idx    E Section Name        Object

    0x20000000   0x20000000   0x000000a0   Data   RO           52    RESET               boot_vectors.o



  Load Region LR_IROM2 (Base: 0x20000160, Size: 0x00000160, Max: 0x00000160, ABSOLUTE)

    Execution Region ER_IROM2 (Exec base: 0x20000160, Load base: 0x20000160, Size: 0x00000160, Max: 0x00000160, ABSOLUTE)

    Exec Addr    Load Addr    Size         Type   Attr      Idx    E Section Name        Object

    0x20000160   0x20000160   0x00000160   Data   RO          502    jump_table_mem_area  jump_table.o



  Load Region LR_IROM3 (Base: 0x200002c0, Size: 0x00000064, Max: 0x00000080, ABSOLUTE)

    Execution Region ER_IROM3 (Exec base: 0x200002c0, Load base: 0x200002c0, Size: 0x00000064, Max: 0x00000080, ABSOLUTE)

    Exec Addr    Load Addr    Size         Type   Attr      Idx    E Section Name        Object

    0x200002c0   0x200002c0   0x00000064   Data   RO         1012    timeout_table_area  gapm.o



  Load Region LR_IROM4 (Base: 0x20000340, Size: 0x000000a4, Max: 0x00000100, ABSOLUTE)

    Execution Region ER_IROM4 (Exec base: 0x20000340, Load base: 0x20000340, Size: 0x000000a4, Max: 0x00000100, ABSOLUTE)

    Exec Addr    Load Addr    Size         Type   Attr      Idx    E Section Name        Object

    0x20000340   0x20000340   0x000000a4   Data   RW         1050    nvds_data_storage_area  nvds.o



  Load Region LR_IROM5 (Base: 0x20000440, Size: 0x00006ba4, Max: 0x000093c0, ABSOLUTE)

    Execution Region ER_IROM5 (Exec base: 0x20000440, Load base: 0x20000440, Size: 0x00006cf4, Max: 0x00007ac0, ABSOLUTE)

    Exec Addr    Load Addr    Size         Type   Attr      Idx    E Section Name        Object

    0x20000440   0x20000440   0x00000000   Code   RO         1554  * .ARM.Collect$$$$00000000  mc_p.l(entry.o)
    0x20000440   0x20000440   0x00000004   Code   RO         1575    .ARM.Collect$$$$00000001  mc_p.l(entry2.o)
    0x20000444   0x20000444   0x00000004   Code   RO         1578    .ARM.Collect$$$$00000004  mc_p.l(entry5.o)
    0x20000448   0x20000448   0x00000000   Code   RO         1580    .ARM.Collect$$$$00000008  mc_p.l(entry7b.o)
    0x20000448   0x20000448   0x00000000   Code   RO         1582    .ARM.Collect$$$$0000000A  mc_p.l(entry8b.o)
    0x20000448   0x20000448   0x00000008   Code   RO         1583    .ARM.Collect$$$$0000000B  mc_p.l(entry9a.o)
    0x20000450   0x20000450   0x00000000   Code   RO         1585    .ARM.Collect$$$$0000000D  mc_p.l(entry10a.o)
    0x20000450   0x20000450   0x00000000   Code   RO         1587    .ARM.Collect$$$$0000000F  mc_p.l(entry11a.o)
    0x20000450   0x20000450   0x00000004   Code   RO         1576    .ARM.Collect$$$$00002712  mc_p.l(entry2.o)
    0x20000454   0x20000454   0x00000054   Code   RO            2    .text               system_armcm0.o
    0x200004a8   0x200004a8   0x0000006c   Code   RO           53    .text               boot_vectors.o
    0x20000514   0x20000514   0x0000005c   Code   RO           58    .text               hardfault_handler.o
    0x20000570   0x20000570   0x00000f60   Code   RO          114    .text               arch_main.o
    0x200014d0   0x200014d0   0x00000002   Code   RO          497    .text               jump_table.o
    0x200014d2   0x200014d2   0x00000002   PAD
    0x200014d4   0x200014d4   0x00000110   Code   RO          568    .text               arch_sleep.o
    0x200015e4   0x200015e4   0x0000008c   Code   RO          587    .text               nmi_handler.o
    0x20001670   0x20001670   0x00000698   Code   RO          606    .text               periph_setup.o
    0x20001d08   0x20001d08   0x000002d4   Code   RO          647    .text               arch_system.o
    0x20001fdc   0x20001fdc   0x000002e8   Code   RO          691    .text               rf_580.o
    0x200022c4   0x200022c4   0x00000060   Code   RO          716    .text               gpio.o
    0x20002324   0x20002324   0x00000120   Code   RO          794    .text               uart.o
    0x20002444   0x20002444   0x00000140   Code   RO          821    .text               pwm.o
    0x20002584   0x20002584   0x00000128   Code   RO          959    .text               adc.o
    0x200026ac   0x200026ac   0x00000148   Code   RO          975    .text               spi.o
    0x200027f4   0x200027f4   0x000004c0   Code   RO          991    .text               spi_flash.o
    0x20002cb4   0x20002cb4   0x000000b8   Code   RO         1008    .text               ke_task.obj
    0x20002d6c   0x20002d6c   0x000000c4   Code   RO         1010    .text               ch_map.obj
    0x20002e30   0x20002e30   0x000000ec   Code   RO         1039    .text               atts_task.obj
    0x20002f1c   0x20002f1c   0x000000ec   Code   RO         1043    .text               smpc.obj
    0x20003008   0x20003008   0x0000020c   Code   RO         1045    .text               smpc_task.obj
    0x20003214   0x20003214   0x00000180   Code   RO         1047    .text               gapm_util.obj
    0x20003394   0x20003394   0x00000278   Code   RO         1049    .text               nvds.o
    0x2000360c   0x2000360c   0x00000188   Code   RO         1069    .text               rwip.o
    0x20003794   0x20003794   0x000001b4   Code   RO         1088    .text               rwble.o
    0x20003948   0x20003948   0x00000140   Code   RO         1116    .text               prf_utils.o
    0x20003a88   0x20003a88   0x00000024   Code   RO         1161    .text               streamdatad.o
    0x20003aac   0x20003aac   0x000001f4   Code   RO         1195    .text               streamdatad_task.o
    0x20003ca0   0x20003ca0   0x0000045c   Code   RO         1229    .text               spotar_task.o
    0x200040fc   0x200040fc   0x0000007c   Code   RO         1252    .text               spotar.o
    0x20004178   0x20004178   0x000000fc   Code   RO         1291    .text               diss_task.o
    0x20004274   0x20004274   0x000000a4   Code   RO         1317    .text               diss.o
    0x20004318   0x20004318   0x00000194   Code   RO         1351    .text               app.o
    0x200044ac   0x200044ac   0x000000b0   Code   RO         1376    .text               app_sec.o
    0x2000455c   0x2000455c   0x00000124   Code   RO         1397    .text               app_sec_task.o
    0x20004680   0x20004680   0x0000013c   Code   RO         1409    .text               app_task.o
    0x200047bc   0x200047bc   0x000006d4   Code   RO         1432    .text               app_throughput_peripheral_proj.o
    0x20004e90   0x20004e90   0x00000040   Code   RO         1458    .text               app_streamdatad.o
    0x20004ed0   0x20004ed0   0x00000026   Code   RO         1477    .text               app_streamdatad_task.o
    0x20004ef6   0x20004ef6   0x00000002   PAD
    0x20004ef8   0x20004ef8   0x00000160   Code   RO         1495    .text               app_spotar_task.o
    0x20005058   0x20005058   0x00000888   Code   RO         1510    .text               app_spotar.o
    0x200058e0   0x200058e0   0x00000164   Code   RO         1530    .text               app_dis_task.o
    0x20005a44   0x20005a44   0x00000040   Code   RO         1542    .text               app_dis.o
    0x20005a84   0x20005a84   0x0000007a   Code   RO         1555    .text               mf_p.l(fmul.o)
    0x20005afe   0x20005afe   0x0000007c   Code   RO         1557    .text               mf_p.l(fdiv.o)
    0x20005b7a   0x20005b7a   0x00000018   Code   RO         1559    .text               mf_p.l(fscalb.o)
    0x20005b92   0x20005b92   0x00000002   PAD
    0x20005b94   0x20005b94   0x00000164   Code   RO         1561    .text               mf_p.l(dadd.o)
    0x20005cf8   0x20005cf8   0x000000f0   Code   RO         1563    .text               mf_p.l(ddiv.o)
    0x20005de8   0x20005de8   0x0000000e   Code   RO         1565    .text               mf_p.l(ffltui.o)
    0x20005df6   0x20005df6   0x00000028   Code   RO         1567    .text               mf_p.l(ffixui.o)
    0x20005e1e   0x20005e1e   0x00000002   PAD
    0x20005e20   0x20005e20   0x0000003c   Code   RO         1569    .text               mf_p.l(dfixui.o)
    0x20005e5c   0x20005e5c   0x00000028   Code   RO         1571    .text               mf_p.l(f2d.o)
    0x20005e84   0x20005e84   0x00000038   Code   RO         1573    .text               mf_p.l(d2f.o)
    0x20005ebc   0x20005ebc   0x00000026   Code   RO         1589    .text               mc_p.l(llsshr.o)
    0x20005ee2   0x20005ee2   0x00000082   Code   RO         1591    .text               mf_p.l(fepilogue.o)
    0x20005f64   0x20005f64   0x00000024   Code   RO         1593    .text               mc_p.l(init.o)
    0x20005f88   0x20005f88   0x0000000c   Ven    RO         1603    Veneer$$Code        anon$$obj.o
    0x20005f94   0x20005f94   0x0000000c   Ven    RO         1604    Veneer$$Code        anon$$obj.o
    0x20005fa0   0x20005fa0   0x0000000c   Ven    RO         1605    Veneer$$Code        anon$$obj.o
    0x20005fac   0x20005fac   0x0000000c   Ven    RO         1606    Veneer$$Code        anon$$obj.o
    0x20005fb8   0x20005fb8   0x0000000c   Ven    RO         1607    Veneer$$Code        anon$$obj.o
    0x20005fc4   0x20005fc4   0x0000000c   Ven    RO         1608    Veneer$$Code        anon$$obj.o
    0x20005fd0   0x20005fd0   0x0000000c   Ven    RO         1609    Veneer$$Code        anon$$obj.o
    0x20005fdc   0x20005fdc   0x0000000c   Ven    RO         1610    Veneer$$Code        anon$$obj.o
    0x20005fe8   0x20005fe8   0x0000000c   Ven    RO         1611    Veneer$$Code        anon$$obj.o
    0x20005ff4   0x20005ff4   0x0000000c   Ven    RO         1612    Veneer$$Code        anon$$obj.o
    0x20006000   0x20006000   0x0000000c   Ven    RO         1613    Veneer$$Code        anon$$obj.o
    0x2000600c   0x2000600c   0x0000000c   Ven    RO         1614    Veneer$$Code        anon$$obj.o
    0x20006018   0x20006018   0x0000000c   Ven    RO         1615    Veneer$$Code        anon$$obj.o
    0x20006024   0x20006024   0x0000000c   Ven    RO         1616    Veneer$$Code        anon$$obj.o
    0x20006030   0x20006030   0x0000000c   Ven    RO         1617    Veneer$$Code        anon$$obj.o
    0x2000603c   0x2000603c   0x0000000c   Ven    RO         1618    Veneer$$Code        anon$$obj.o
    0x20006048   0x20006048   0x0000000c   Ven    RO         1619    Veneer$$Code        anon$$obj.o
    0x20006054   0x20006054   0x0000000c   Ven    RO         1620    Veneer$$Code        anon$$obj.o
    0x20006060   0x20006060   0x0000000c   Ven    RO         1621    Veneer$$Code        anon$$obj.o
    0x2000606c   0x2000606c   0x0000000c   Ven    RO         1622    Veneer$$Code        anon$$obj.o
    0x20006078   0x20006078   0x0000000c   Ven    RO         1623    Veneer$$Code        anon$$obj.o
    0x20006084   0x20006084   0x0000000c   Ven    RO         1624    Veneer$$Code        anon$$obj.o
    0x20006090   0x20006090   0x0000000c   Ven    RO         1625    Veneer$$Code        anon$$obj.o
    0x2000609c   0x2000609c   0x0000000c   Ven    RO         1626    Veneer$$Code        anon$$obj.o
    0x200060a8   0x200060a8   0x0000000c   Ven    RO         1627    Veneer$$Code        anon$$obj.o
    0x200060b4   0x200060b4   0x0000000c   Ven    RO         1628    Veneer$$Code        anon$$obj.o
    0x200060c0   0x200060c0   0x0000000c   Ven    RO         1629    Veneer$$Code        anon$$obj.o
    0x200060cc   0x200060cc   0x0000000c   Ven    RO         1630    Veneer$$Code        anon$$obj.o
    0x200060d8   0x200060d8   0x0000000c   Ven    RO         1631    Veneer$$Code        anon$$obj.o
    0x200060e4   0x200060e4   0x0000000c   Ven    RO         1632    Veneer$$Code        anon$$obj.o
    0x200060f0   0x200060f0   0x0000000c   Ven    RO         1633    Veneer$$Code        anon$$obj.o
    0x200060fc   0x200060fc   0x0000000c   Ven    RO         1634    Veneer$$Code        anon$$obj.o
    0x20006108   0x20006108   0x0000000c   Ven    RO         1635    Veneer$$Code        anon$$obj.o
    0x20006114   0x20006114   0x0000000c   Ven    RO         1636    Veneer$$Code        anon$$obj.o
    0x20006120   0x20006120   0x0000000c   Ven    RO         1637    Veneer$$Code        anon$$obj.o
    0x2000612c   0x2000612c   0x0000000c   Ven    RO         1638    Veneer$$Code        anon$$obj.o
    0x20006138   0x20006138   0x0000000c   Ven    RO         1639    Veneer$$Code        anon$$obj.o
    0x20006144   0x20006144   0x0000000c   Ven    RO         1640    Veneer$$Code        anon$$obj.o
    0x20006150   0x20006150   0x0000000c   Ven    RO         1641    Veneer$$Code        anon$$obj.o
    0x2000615c   0x2000615c   0x0000000c   Ven    RO         1642    Veneer$$Code        anon$$obj.o
    0x20006168   0x20006168   0x0000000c   Ven    RO         1643    Veneer$$Code        anon$$obj.o
    0x20006174   0x20006174   0x0000000c   Ven    RO         1644    Veneer$$Code        anon$$obj.o
    0x20006180   0x20006180   0x0000000c   Ven    RO         1645    Veneer$$Code        anon$$obj.o
    0x2000618c   0x2000618c   0x0000000c   Ven    RO         1646    Veneer$$Code        anon$$obj.o
    0x20006198   0x20006198   0x0000000c   Ven    RO         1647    Veneer$$Code        anon$$obj.o
    0x200061a4   0x200061a4   0x0000000c   Ven    RO         1648    Veneer$$Code        anon$$obj.o
    0x200061b0   0x200061b0   0x0000000c   Ven    RO         1649    Veneer$$Code        anon$$obj.o
    0x200061bc   0x200061bc   0x0000000c   Ven    RO         1650    Veneer$$Code        anon$$obj.o
    0x200061c8   0x200061c8   0x0000000c   Ven    RO         1651    Veneer$$Code        anon$$obj.o
    0x200061d4   0x200061d4   0x0000000c   Ven    RO         1652    Veneer$$Code        anon$$obj.o
    0x200061e0   0x200061e0   0x0000000c   Ven    RO         1653    Veneer$$Code        anon$$obj.o
    0x200061ec   0x200061ec   0x0000000c   Ven    RO         1654    Veneer$$Code        anon$$obj.o
    0x200061f8   0x200061f8   0x0000000c   Ven    RO         1655    Veneer$$Code        anon$$obj.o
    0x20006204   0x20006204   0x0000000c   Ven    RO         1656    Veneer$$Code        anon$$obj.o
    0x20006210   0x20006210   0x0000000c   Ven    RO         1657    Veneer$$Code        anon$$obj.o
    0x2000621c   0x2000621c   0x0000000c   Ven    RO         1658    Veneer$$Code        anon$$obj.o
    0x20006228   0x20006228   0x0000000c   Ven    RO         1659    Veneer$$Code        anon$$obj.o
    0x20006234   0x20006234   0x0000000c   Ven    RO         1660    Veneer$$Code        anon$$obj.o
    0x20006240   0x20006240   0x0000000c   Ven    RO         1661    Veneer$$Code        anon$$obj.o
    0x2000624c   0x2000624c   0x0000000c   Ven    RO         1662    Veneer$$Code        anon$$obj.o
    0x20006258   0x20006258   0x0000000c   Ven    RO         1663    Veneer$$Code        anon$$obj.o
    0x20006264   0x20006264   0x0000000c   Ven    RO         1664    Veneer$$Code        anon$$obj.o
    0x20006270   0x20006270   0x0000000c   Ven    RO         1665    Veneer$$Code        anon$$obj.o
    0x2000627c   0x2000627c   0x0000000c   Ven    RO         1666    Veneer$$Code        anon$$obj.o
    0x20006288   0x20006288   0x0000000c   Ven    RO         1667    Veneer$$Code        anon$$obj.o
    0x20006294   0x20006294   0x0000000c   Ven    RO         1668    Veneer$$Code        anon$$obj.o
    0x200062a0   0x200062a0   0x0000000c   Ven    RO         1669    Veneer$$Code        anon$$obj.o
    0x200062ac   0x200062ac   0x0000000c   Ven    RO         1670    Veneer$$Code        anon$$obj.o
    0x200062b8   0x200062b8   0x0000000c   Ven    RO         1671    Veneer$$Code        anon$$obj.o
    0x200062c4   0x200062c4   0x0000000c   Ven    RO         1672    Veneer$$Code        anon$$obj.o
    0x200062d0   0x200062d0   0x0000000c   Ven    RO         1673    Veneer$$Code        anon$$obj.o
    0x200062dc   0x200062dc   0x0000000c   Ven    RO         1674    Veneer$$Code        anon$$obj.o
    0x200062e8   0x200062e8   0x0000000c   Ven    RO         1675    Veneer$$Code        anon$$obj.o
    0x200062f4   0x200062f4   0x0000000c   Ven    RO         1676    Veneer$$Code        anon$$obj.o
    0x20006300   0x20006300   0x0000000c   Ven    RO         1677    Veneer$$Code        anon$$obj.o
    0x2000630c   0x2000630c   0x0000000c   Ven    RO         1678    Veneer$$Code        anon$$obj.o
    0x20006318   0x20006318   0x0000000c   Ven    RO         1679    Veneer$$Code        anon$$obj.o
    0x20006324   0x20006324   0x0000000c   Ven    RO         1680    Veneer$$Code        anon$$obj.o
    0x20006330   0x20006330   0x0000000c   Ven    RO         1681    Veneer$$Code        anon$$obj.o
    0x2000633c   0x2000633c   0x0000000c   Ven    RO         1682    Veneer$$Code        anon$$obj.o
    0x20006348   0x20006348   0x0000000c   Ven    RO         1683    Veneer$$Code        anon$$obj.o
    0x20006354   0x20006354   0x0000000c   Ven    RO         1684    Veneer$$Code        anon$$obj.o
    0x20006360   0x20006360   0x0000000c   Ven    RO         1685    Veneer$$Code        anon$$obj.o
    0x2000636c   0x2000636c   0x0000000c   Ven    RO         1686    Veneer$$Code        anon$$obj.o
    0x20006378   0x20006378   0x0000000c   Ven    RO         1687    Veneer$$Code        anon$$obj.o
    0x20006384   0x20006384   0x0000000c   Ven    RO         1688    Veneer$$Code        anon$$obj.o
    0x20006390   0x20006390   0x0000000c   Ven    RO         1689    Veneer$$Code        anon$$obj.o
    0x2000639c   0x2000639c   0x0000000c   Ven    RO         1690    Veneer$$Code        anon$$obj.o
    0x200063a8   0x200063a8   0x0000000c   Ven    RO         1691    Veneer$$Code        anon$$obj.o
    0x200063b4   0x200063b4   0x0000000c   Ven    RO         1692    Veneer$$Code        anon$$obj.o
    0x200063c0   0x200063c0   0x0000000c   Ven    RO         1693    Veneer$$Code        anon$$obj.o
    0x200063cc   0x200063cc   0x0000000c   Ven    RO         1694    Veneer$$Code        anon$$obj.o
    0x200063d8   0x200063d8   0x0000000c   Ven    RO         1695    Veneer$$Code        anon$$obj.o
    0x200063e4   0x200063e4   0x0000000c   Ven    RO         1696    Veneer$$Code        anon$$obj.o
    0x200063f0   0x200063f0   0x0000000c   Ven    RO         1697    Veneer$$Code        anon$$obj.o
    0x200063fc   0x200063fc   0x0000000c   Ven    RO         1698    Veneer$$Code        anon$$obj.o
    0x20006408   0x20006408   0x0000000c   Ven    RO         1699    Veneer$$Code        anon$$obj.o
    0x20006414   0x20006414   0x0000000c   Ven    RO         1700    Veneer$$Code        anon$$obj.o
    0x20006420   0x20006420   0x0000000c   Ven    RO         1701    Veneer$$Code        anon$$obj.o
    0x2000642c   0x2000642c   0x0000000c   Ven    RO         1702    Veneer$$Code        anon$$obj.o
    0x20006438   0x20006438   0x0000000c   Ven    RO         1703    Veneer$$Code        anon$$obj.o
    0x20006444   0x20006444   0x0000000c   Ven    RO         1704    Veneer$$Code        anon$$obj.o
    0x20006450   0x20006450   0x0000000c   Ven    RO         1705    Veneer$$Code        anon$$obj.o
    0x2000645c   0x2000645c   0x0000000c   Ven    RO         1706    Veneer$$Code        anon$$obj.o
    0x20006468   0x20006468   0x0000000c   Ven    RO         1707    Veneer$$Code        anon$$obj.o
    0x20006474   0x20006474   0x0000000c   Ven    RO         1708    Veneer$$Code        anon$$obj.o
    0x20006480   0x20006480   0x0000000c   Ven    RO         1709    Veneer$$Code        anon$$obj.o
    0x2000648c   0x2000648c   0x0000000c   Ven    RO         1710    Veneer$$Code        anon$$obj.o
    0x20006498   0x20006498   0x0000000c   Ven    RO         1711    Veneer$$Code        anon$$obj.o
    0x200064a4   0x200064a4   0x0000000c   Ven    RO         1712    Veneer$$Code        anon$$obj.o
    0x200064b0   0x200064b0   0x0000000c   Ven    RO         1713    Veneer$$Code        anon$$obj.o
    0x200064bc   0x200064bc   0x0000000c   Ven    RO         1714    Veneer$$Code        anon$$obj.o
    0x200064c8   0x200064c8   0x00000054   Code   RO          754    i.GPIO_ConfigurePin  gpio.o
    0x2000651c   0x2000651c   0x00000264   Code   RO          766    i.GPIO_EnableIRQ    gpio.o
    0x20006780   0x20006780   0x00000048   Code   RO          760    i.GPIO_GetPinStatus  gpio.o
    0x200067c8   0x200067c8   0x00000098   Code   RO          772    i.GPIO_ResetIRQ     gpio.o
    0x20006860   0x20006860   0x00000044   Code   RO          748    i.GPIO_SetActive    gpio.o
    0x200068a4   0x200068a4   0x00000044   Code   RO          742    i.GPIO_SetInactive  gpio.o
    0x200068e8   0x200068e8   0x00000048   Code   RO          736    i.GPIO_SetPinFunction  gpio.o
    0x20006930   0x20006930   0x00000094   Code   RO          730    i.GPIO_init         gpio.o
    0x200069c4   0x200069c4   0x0000000e   Code   RO         1597    i.__scatterload_copy  mc_p.l(handlers.o)
    0x200069d2   0x200069d2   0x00000002   Code   RO         1598    i.__scatterload_null  mc_p.l(handlers.o)
    0x200069d4   0x200069d4   0x0000000e   Code   RO         1599    i.__scatterload_zeroinit  mc_p.l(handlers.o)
    0x200069e2   0x200069e2   0x00000002   PAD
    0x200069e4   0x200069e4   0x00000018   Code   RO          843    i.set_tmr_div       pwm.o
    0x200069fc   0x200069fc   0x00000018   Code   RO          837    i.set_tmr_enable    pwm.o
    0x20006a14   0x20006a14   0x00000010   Code   RO          849    i.timer0_start      pwm.o
    0x20006a24   0x20006a24   0x00000018   Code   RO          890    i.timer2_enable     pwm.o
    0x20006a3c   0x20006a3c   0x00000018   Code   RO          895    i.timer2_set_hw_pause  pwm.o
    0x20006a54   0x20006a54   0x0000000c   Code   RO          916    i.timer2_set_pwm2_duty_cycle  pwm.o
    0x20006a60   0x20006a60   0x00000018   Code   RO          900    i.timer2_set_sw_pause  pwm.o
    0x20006a78   0x20006a78   0x00000020   Data   RO          118    .constdata          arch_main.o
    0x20006a98   0x20006a98   0x00000016   Data   RO          119    .constdata          arch_main.o
    0x20006aae   0x20006aae   0x00000008   Data   RO          718    .constdata          gpio.o
    0x20006ab6   0x20006ab6   0x00000002   PAD
    0x20006ab8   0x20006ab8   0x00000050   Data   RO          993    .constdata          spi_flash.o
    0x20006b08   0x20006b08   0x00000010   Data   RO         1163    .constdata          streamdatad.o
    0x20006b18   0x20006b18   0x00000002   Data   RO         1199    .constdata          streamdatad_task.o
    0x20006b1a   0x20006b1a   0x00000005   Data   RO         1200    .constdata          streamdatad_task.o
    0x20006b1f   0x20006b1f   0x00000005   Data   RO         1201    .constdata          streamdatad_task.o
    0x20006b24   0x20006b24   0x00000019   Data   RO         1202    .constdata          streamdatad_task.o
    0x20006b3d   0x20006b3d   0x00000005   Data   RO         1203    .constdata          streamdatad_task.o
    0x20006b42   0x20006b42   0x00000002   PAD
    0x20006b44   0x20006b44   0x0000006c   Data   RO         1204    .constdata          streamdatad_task.o
    0x20006bb0   0x20006bb0   0x00000008   Data   RO         1205    .constdata          streamdatad_task.o
    0x20006bb8   0x20006bb8   0x00000008   Data   RO         1206    .constdata          streamdatad_task.o
    0x20006bc0   0x20006bc0   0x00000010   Data   RO         1207    .constdata          streamdatad_task.o
    0x20006bd0   0x20006bd0   0x00000018   Data   RO         1208    .constdata          streamdatad_task.o
    0x20006be8   0x20006be8   0x00000008   Data   RO         1209    .constdata          streamdatad_task.o
    0x20006bf0   0x20006bf0   0x00000008   Data   RO         1230    .constdata          spotar_task.o
    0x20006bf8   0x20006bf8   0x00000008   Data   RO         1231    .constdata          spotar_task.o
    0x20006c00   0x20006c00   0x00000018   Data   RO         1232    .constdata          spotar_task.o
    0x20006c18   0x20006c18   0x00000008   Data   RO         1233    .constdata          spotar_task.o
    0x20006c20   0x20006c20   0x00000018   Data   RO         1234    .constdata          spotar_task.o
    0x20006c38   0x20006c38   0x00000008   Data   RO         1235    .constdata          spotar_task.o
    0x20006c40   0x20006c40   0x00000002   Data   RO         1259    .constdata          spotar.o
    0x20006c42   0x20006c42   0x00000010   Data   RO         1260    .constdata          spotar.o
    0x20006c52   0x20006c52   0x00000010   Data   RO         1261    .constdata          spotar.o
    0x20006c62   0x20006c62   0x00000010   Data   RO         1262    .constdata          spotar.o
    0x20006c72   0x20006c72   0x00000010   Data   RO         1263    .constdata          spotar.o
    0x20006c82   0x20006c82   0x00000010   Data   RO         1264    .constdata          spotar.o
    0x20006c92   0x20006c92   0x00000010   Data   RO         1265    .constdata          spotar.o
    0x20006ca2   0x20006ca2   0x00000002   PAD
    0x20006ca4   0x20006ca4   0x00000010   Data   RO         1266    .constdata          spotar.o
    0x20006cb4   0x20006cb4   0x00000008   Data   RO         1292    .constdata          diss_task.o
    0x20006cbc   0x20006cbc   0x00000010   Data   RO         1293    .constdata          diss_task.o
    0x20006ccc   0x20006ccc   0x00000008   Data   RO         1294    .constdata          diss_task.o
    0x20006cd4   0x20006cd4   0x00000018   Data   RO         1295    .constdata          diss_task.o
    0x20006cec   0x20006cec   0x00000008   Data   RO         1296    .constdata          diss_task.o
    0x20006cf4   0x20006cf4   0x000000e4   Data   RO         1318    .constdata          diss.o
    0x20006dd8   0x20006dd8   0x00000002   Data   RO         1319    .constdata          diss.o
    0x20006dda   0x20006dda   0x00000005   Data   RO         1320    .constdata          diss.o
    0x20006ddf   0x20006ddf   0x00000005   Data   RO         1321    .constdata          diss.o
    0x20006de4   0x20006de4   0x00000005   Data   RO         1322    .constdata          diss.o
    0x20006de9   0x20006de9   0x00000005   Data   RO         1323    .constdata          diss.o
    0x20006dee   0x20006dee   0x00000005   Data   RO         1324    .constdata          diss.o
    0x20006df3   0x20006df3   0x00000005   Data   RO         1325    .constdata          diss.o
    0x20006df8   0x20006df8   0x00000005   Data   RO         1326    .constdata          diss.o
    0x20006dfd   0x20006dfd   0x00000005   Data   RO         1327    .constdata          diss.o
    0x20006e02   0x20006e02   0x00000005   Data   RO         1328    .constdata          diss.o
    0x20006e07   0x20006e07   0x00000001   PAD
    0x20006e08   0x20006e08   0x00000010   Data   RO         1329    .constdata          diss.o
    0x20006e18   0x20006e18   0x00000010   Data   RO         1353    .constdata          app.o
    0x20006e28   0x20006e28   0x000000d0   Data   RO         1410    .constdata          app_task.o
    0x20006ef8   0x20006ef8   0x00000008   Data   RO         1411    .constdata          app_task.o
    0x20006f00   0x20006f00   0x0000000d   Data   RO          719    .conststring        gpio.o
    0x20006f0d   0x20006f0d   0x00000003   PAD
    0x20006f10   0x20006f10   0x00000040   Data   RO         1595    Region$$Table       anon$$obj.o
    0x20006f50   0x20006f50   0x0000000c   Data   RW          120    .data               arch_main.o
    0x20006f5c   0x20006f5c   0x00000013   Data   RW          610    .data               periph_setup.o
    0x20006f6f   0x20006f6f   0x00000013   Data   RW         1267    .data               spotar.o
    0x20006f82   0x20006f82   0x00000013   Data   RW         1268    .data               spotar.o
    0x20006f95   0x20006f95   0x00000013   Data   RW         1269    .data               spotar.o
    0x20006fa8   0x20006fa8   0x00000013   Data   RW         1270    .data               spotar.o
    0x20006fbb   0x20006fbb   0x00000013   Data   RW         1271    .data               spotar.o
    0x20006fce   0x20006fce   0x00000013   Data   RW         1272    .data               spotar.o
    0x20006fe1   0x20006fe1   0x00000001   Data   RW         1439    .data               app_throughput_peripheral_proj.o
    0x20006fe2   0x20006fe2   0x00000002   PAD
    0x20006fe4        -       0x00000150   Zero   RW         1512    spotar_patch_area   app_spotar.o


    Execution Region RW_IRAM50 (Exec base: 0x20008000, Load base: 0x20006fe4, Size: 0x000000bc, Max: 0x00000bf4, ABSOLUTE)

    Exec Addr    Load Addr    Size         Type   Attr      Idx    E Section Name        Object

    0x20008000        -       0x00000006   Zero   RW          607    .bss                periph_setup.o
    0x20008006        -       0x00000002   Zero   RW          826    .bss                pwm.o
    0x20008008        -       0x00000002   Zero   RW          976    .bss                spi.o
    0x2000800a   0x20006fe4   0x00000002   PAD
    0x2000800c        -       0x00000010   Zero   RW          992    .bss                spi_flash.o
    0x2000801c        -       0x00000007   Zero   RW         1196    .bss                streamdatad_task.o
    0x20008023        -       0x00000001   Zero   RW         1198    .bss                streamdatad_task.o
    0x20008024        -       0x00000001   Zero   RW         1352    .bss                app.o
    0x20008025        -       0x00000001   Zero   RW         1436    .bss                app_throughput_peripheral_proj.o
    0x20008026        -       0x00000001   Zero   RW          123    retention_mem_area0  arch_main.o
    0x20008027        -       0x00000004   Zero   RW          569    retention_mem_area0  arch_sleep.o
    0x2000802b   0x20006fe4   0x00000001   PAD
    0x2000802c        -       0x00000014   Zero   RW          648    retention_mem_area0  arch_system.o
    0x20008040        -       0x00000006   Zero   RW         1051    retention_mem_area0  nvds.o
    0x20008046        -       0x00000001   Zero   RW         1089    retention_mem_area0  rwble.o
    0x20008047        -       0x00000001   Zero   RW         1236    retention_mem_area0  spotar_task.o
    0x20008048        -       0x00000008   Zero   RW         1273    retention_mem_area0  spotar.o
    0x20008050        -       0x00000001   Zero   RW         1297    retention_mem_area0  diss_task.o
    0x20008051   0x20006fe4   0x00000001   PAD
    0x20008052        -       0x00000012   Zero   RW         1330    retention_mem_area0  diss.o
    0x20008064        -       0x0000000c   Zero   RW         1354    retention_mem_area0  app.o
    0x20008070        -       0x00000024   Zero   RW         1377    retention_mem_area0  app_sec.o
    0x20008094        -       0x00000001   Zero   RW         1412    retention_mem_area0  app_task.o
    0x20008095   0x20006fe4   0x00000003   PAD
    0x20008098        -       0x00000024   Zero   RW         1511    retention_mem_area0  app_spotar.o


    Execution Region RW_IRAM51 (Exec base: 0x20008bf4, Load base: 0x20006fe4, Size: 0x0000040c, Max: 0x0000040c, ABSOLUTE, UNINIT)

    Exec Addr    Load Addr    Size         Type   Attr      Idx    E Section Name        Object

    0x20008bf4        -       0x0000040c   Zero   RW          500    heap_mem_area_not_ret  jump_table.o


    Execution Region RW_IRAM52 (Exec base: 0x20009000, Load base: 0x20006fe4, Size: 0x00000020, Max: 0x00000020, ABSOLUTE)

    Exec Addr    Load Addr    Size         Type   Attr      Idx    E Section Name        Object

    0x20009000        -       0x00000020   Zero   RW            1    RW_IRAM52.bss       anon$$obj.o


    Execution Region RW_IRAM53 (Exec base: 0x20009020, Load base: 0x20006fe4, Size: 0x000001c4, Max: 0x000001e0, ABSOLUTE)

    Exec Addr    Load Addr    Size         Type   Attr      Idx    E Section Name        Object

    0x20009020        -       0x0000003c   Zero   RW          115    .bss                arch_main.o
    0x2000905c   0x20006fe4   0x00000004   PAD
    0x20009060        -       0x000000c4   Zero   RW          717    .bss                gpio.o
    0x20009124        -       0x0000004c   Zero   RW          795    .bss                uart.o
    0x20009170        -       0x00000026   Zero   RW          825    .bss                pwm.o
    0x20009196        -       0x00000028   Zero   RW         1162    .bss                streamdatad.o
    0x200091be        -       0x00000024   Zero   RW         1433    .bss                app_throughput_peripheral_proj.o


    Execution Region RW_IRAM54 (Exec base: 0x20009200, Load base: 0x20006fe4, Size: 0x00000600, Max: 0x00000600, ABSOLUTE, UNINIT)

    Exec Addr    Load Addr    Size         Type   Attr      Idx    E Section Name        Object

    0x20009200        -       0x00000600   Zero   RW           50    STACK               boot_vectors.o



  Load Region LR_RETENTION_RAM2 (Base: 0x00080768, Size: 0x00000000, Max: 0x00002898, ABSOLUTE)

    Execution Region ZI_RET20 (Exec base: 0x00080768, Load base: 0x00080768, Size: 0x00000a8c, Max: 0x000022b8, ABSOLUTE, UNINIT)

    Exec Addr    Load Addr    Size         Type   Attr      Idx    E Section Name        Object

    0x00080768        -       0x0000040c   Zero   RW          498    heap_db_area        jump_table.o
    0x00080b74        -       0x00000154   Zero   RW          499    heap_env_area       jump_table.o
    0x00080cc8        -       0x0000052c   Zero   RW          501    heap_msg_area       jump_table.o


    Execution Region ZI_RET21 (Exec base: 0x00082a20, Load base: 0x00080768, Size: 0x000005e0, Max: 0x000005e0, ABSOLUTE)

    Exec Addr    Load Addr    Size         Type   Attr      Idx    E Section Name        Object

    0x00082a20        -       0x000005de   Zero   RW          122    BLE_exchange_memory  arch_main.o



  Load Region LR$$.ARM.__AT_0x50000004 (Base: 0x50000004, Size: 0x00000000, Max: 0x00000004, ABSOLUTE)

    Execution Region ER$$.ARM.__AT_0x50000004 (Exec base: 0x50000004, Load base: 0x50000004, Size: 0x00000004, Max: 0x00000004, ABSOLUTE, UNINIT)

    Exec Addr    Load Addr    Size         Type   Attr      Idx    E Section Name        Object

    0x50000004        -       0x00000004   Zero   RW          822    .ARM.__AT_0x50000004  pwm.o



  Load Region LR$$.ARM.__AT_0x50003400 (Base: 0x50003400, Size: 0x00000000, Max: 0x00000004, ABSOLUTE)

    Execution Region ER$$.ARM.__AT_0x50003400 (Exec base: 0x50003400, Load base: 0x50003400, Size: 0x00000004, Max: 0x00000004, ABSOLUTE, UNINIT)

    Exec Addr    Load Addr    Size         Type   Attr      Idx    E Section Name        Object

    0x50003400        -       0x00000004   Zero   RW          823    .ARM.__AT_0x50003400  pwm.o



  Load Region LR$$.ARM.__AT_0x50003410 (Base: 0x50003410, Size: 0x00000000, Max: 0x00000004, ABSOLUTE)

    Execution Region ER$$.ARM.__AT_0x50003410 (Exec base: 0x50003410, Load base: 0x50003410, Size: 0x00000004, Max: 0x00000004, ABSOLUTE, UNINIT)

    Exec Addr    Load Addr    Size         Type   Attr      Idx    E Section Name        Object

    0x50003410        -       0x00000004   Zero   RW          824    .ARM.__AT_0x50003410  pwm.o


==============================================================================

Image component sizes


      Code (inc. data)   RO Data    RW Data    ZI Data      Debug   Object Name

       296         16          0          0          0       2361   adc.o
       404         62         16          0         13       4430   app.o
        64          4          0          0          0       1577   app_dis.o
       356         60          0          0          0       2246   app_dis_task.o
       176         22          0          0         36       3171   app_sec.o
       292         28          0          0          0       2428   app_sec_task.o
      2184         60          0          0        372      12434   app_spotar.o
       352         12          0          0          0       2867   app_spotar_task.o
        64         10          0          0          0       3048   app_streamdatad.o
        38          0          0          0          0       1575   app_streamdatad_task.o
       316          8        216          0          1       5864   app_task.o
      1748        198          0          1         37      10816   app_throughput_peripheral_proj.o
      3936        636         54         12       1563     170116   arch_main.o
       272         20          0          0          4       4544   arch_sleep.o
       724         64          0          0         20      82706   arch_system.o
       236         18          0          0          0         72   atts_task.obj
       108         22        160          0       1536        772   boot_vectors.o
       196         12          0          0          0        108   ch_map.obj
       164         14        291          0         18       6165   diss.o
       252         12         64          0          1       4204   diss_task.o
         0          0        100          0          0       1216   gapm.o
       384         38          0          0          0        112   gapm_util.obj
      1372         94         21          0        196      16425   gpio.o
        92          8          0          0          0      93842   hardfault_handler.o
         2          0        352          0       3736       2928   jump_table.o
       184         18          0          0          0         96   ke_task.obj
       140         16          0          0          0       9133   nmi_handler.o
       632         30          0        164          6       7999   nvds.o
      1688         46          0         19          6       7031   periph_setup.o
       320         36          0          0          0       6775   prf_utils.o
       468         68          0          0         52      14712   pwm.o
       744        176          0          0          0      64940   rf_580.o
       436         42          0          0          1      63629   rwble.o
       392         46          0          0          0      63294   rwip.o
       236          8          0          0          0        136   smpc.obj
       524          6          0          0          0         84   smpc_task.obj
       328          8          0          0          2       2915   spi.o
      1216         18         80          0         16       9758   spi_flash.o
       124         14        114        114          8       5728   spotar.o
      1116         74         80          0          1       6346   spotar_task.o
        36          8         16          0         40       3857   streamdatad.o
       500         44        214          0          8       5610   streamdatad_task.o
        84         14          0          0          0     100573   system_armcm0.o
       288         18          0          0         76       8794   uart.o

    ----------------------------------------------------------------------
     24832       2556       1852        312       7796     817437   Object Totals
      1344        448         64          0         32          0   (incl. Generated)
         4          0         10          2         15          0   (incl. Padding)

    ----------------------------------------------------------------------

      Code (inc. data)   RO Data    RW Data    ZI Data      Debug   Library Member Name

         0          0          0          0          0          0   entry.o
         0          0          0          0          0          0   entry10a.o
         0          0          0          0          0          0   entry11a.o
         8          4          0          0          0          0   entry2.o
         4          0          0          0          0          0   entry5.o
         0          0          0          0          0          0   entry7b.o
         0          0          0          0          0          0   entry8b.o
         8          4          0          0          0          0   entry9a.o
        30          0          0          0          0          0   handlers.o
        36          8          0          0          0         68   init.o
        38          0          0          0          0         68   llsshr.o
        56          0          0          0          0         68   d2f.o
       356          4          0          0          0        140   dadd.o
       240          6          0          0          0         84   ddiv.o
        60         10          0          0          0         68   dfixui.o
        40          0          0          0          0         60   f2d.o
       124          0          0          0          0         72   fdiv.o
       130          0          0          0          0        144   fepilogue.o
        40          0          0          0          0         60   ffixui.o
        14          0          0          0          0         68   ffltui.o
       122          0          0          0          0         72   fmul.o
        24          0          0          0          0         60   fscalb.o

    ----------------------------------------------------------------------
      1336         36          0          0          0       1032   Library Totals
         6          0          0          0          0          0   (incl. Padding)

    ----------------------------------------------------------------------

      Code (inc. data)   RO Data    RW Data    ZI Data      Debug   Library Name

       124         16          0          0          0        136   mc_p.l
      1206         20          0          0          0        896   mf_p.l

    ----------------------------------------------------------------------
      1336         36          0          0          0       1032   Library Totals

    ----------------------------------------------------------------------

==============================================================================


      Code (inc. data)   RO Data    RW Data    ZI Data      Debug   

     26168       2592       1852        312       7796     814177   Grand Totals
     26168       2592       1852        312       7796     814177   ELF Image Totals
     26168       2592       1852        312          0          0   ROM Totals

==============================================================================

    Total RO  Size (Code + RO Data)                28020 (  27.36kB)
    Total RW  Size (RW Data + ZI Data)              8108 (   7.92kB)
    Total ROM Size (Code + RO Data + RW Data)      28332 (  27.67kB)

==============================================================================

